ARM Linker, 4.1 [Build 894] [Standard]

==============================================================================

Section Cross References

    main.o(i.AppTaskStart) refers to system_stm32f10x.o(i.SystemInit) for SystemInit
    main.o(i.AppTaskStart) refers to main.o(i.ButtonInit) for ButtonInit
    main.o(i.AppTaskStart) refers to dtimer.o(i.DTimerInit) for DTimerInit
    main.o(i.AppTaskStart) refers to uart.o(i.init_dbguart) for init_dbguart
    main.o(i.AppTaskStart) refers to stm32_eval.o(i.STM_EVAL_LEDInit) for STM_EVAL_LEDInit
    main.o(i.AppTaskStart) refers to stm32_eval.o(i.STM_EVAL_LEDOn) for STM_EVAL_LEDOn
    main.o(i.AppTaskStart) refers to os_time.o(i.OSTimeDly) for OSTimeDly
    main.o(i.AppTaskStart) refers to stm32_eval.o(i.STM_EVAL_LEDOff) for STM_EVAL_LEDOff
    main.o(i.AppTaskStart) refers to os_core.o(i.OSStatInit) for OSStatInit
    main.o(i.AppTaskStart) refers to printf8.o(i.__0printf$8) for __2printf
    main.o(i.AppTaskStart) refers to wers.o(i.WERS_init) for WERS_init
    main.o(i.AppTaskStart) refers to stm32_eval.o(i.STM_EVAL_LEDToggle) for STM_EVAL_LEDToggle
    main.o(i.ButtonInit) refers to stm32f10x_rcc.o(i.RCC_APB2PeriphClockCmd) for RCC_APB2PeriphClockCmd
    main.o(i.ButtonInit) refers to stm32f10x_gpio.o(i.GPIO_Init) for GPIO_Init
    main.o(i.FSMC_SRAM_Init) refers to stm32f10x_rcc.o(i.RCC_APB2PeriphClockCmd) for RCC_APB2PeriphClockCmd
    main.o(i.FSMC_SRAM_Init) refers to stm32f10x_gpio.o(i.GPIO_Init) for GPIO_Init
    main.o(i.FSMC_SRAM_Init) refers to stm32f10x_fsmc.o(i.FSMC_NORSRAMInit) for FSMC_NORSRAMInit
    main.o(i.FSMC_SRAM_Init) refers to stm32f10x_fsmc.o(i.FSMC_NORSRAMCmd) for FSMC_NORSRAMCmd
    main.o(i.main) refers to os_core.o(i.OSInit) for OSInit
    main.o(i.main) refers to os_task.o(i.OSTaskCreate) for OSTaskCreate
    main.o(i.main) refers to os_task.o(i.OSTaskNameSet) for OSTaskNameSet
    main.o(i.main) refers to os_core.o(i.OSStart) for OSStart
    main.o(i.main) refers to main.o(.bss) for AppTaskStartStk
    main.o(i.main) refers to main.o(i.AppTaskStart) for AppTaskStart
    stm32f10x_it.o(i.EXTI1_IRQHandler) refers to os_cpu_a.o(.text) for OS_CPU_SR_Save
    stm32f10x_it.o(i.EXTI1_IRQHandler) refers to os_core.o(i.OSIntExit) for OSIntExit
    stm32f10x_it.o(i.EXTI1_IRQHandler) refers to os_core.o(.data) for OSIntNesting
    stm32f10x_it.o(i.SysTick_Handler) refers to os_cpu_a.o(.text) for OS_CPU_SR_Save
    stm32f10x_it.o(i.SysTick_Handler) refers to os_core.o(i.OSTimeTick) for OSTimeTick
    stm32f10x_it.o(i.SysTick_Handler) refers to os_core.o(i.OSIntExit) for OSIntExit
    stm32f10x_it.o(i.SysTick_Handler) refers to os_core.o(.data) for OSIntNesting
    dtimer.o(i.CreateTimer) refers to dtimer.o(i.CreateTimerEx) for CreateTimerEx
    dtimer.o(i.CreateTimer) refers to dtimer.o(i.StartTimer) for StartTimer
    dtimer.o(i.CreateTimerEx) refers to dtimer.o(.bss) for g_stimer
    dtimer.o(i.DTimerInit) refers to stm32f10x_rcc.o(i.RCC_APB1PeriphClockCmd) for RCC_APB1PeriphClockCmd
    dtimer.o(i.DTimerInit) refers to misc.o(i.NVIC_Init) for NVIC_Init
    dtimer.o(i.DTimerInit) refers to stm32f10x_tim.o(i.TIM_TimeBaseInit) for TIM_TimeBaseInit
    dtimer.o(i.DTimerInit) refers to stm32f10x_tim.o(i.TIM_OC1Init) for TIM_OC1Init
    dtimer.o(i.DTimerInit) refers to stm32f10x_tim.o(i.TIM_Cmd) for TIM_Cmd
    dtimer.o(i.DTimerInit) refers to stm32f10x_tim.o(i.TIM_ITConfig) for TIM_ITConfig
    dtimer.o(i.DTimerInit) refers to dtimer.o(.bss) for g_stimer
    dtimer.o(i.DeleteTimer) refers to dtimer.o(.bss) for g_stimer
    dtimer.o(i.MsDelay) refers to dtimer.o(.data) for g_msec
    dtimer.o(i.ResetTimer) refers to dtimer.o(.bss) for g_stimer
    dtimer.o(i.StartTimer) refers to dtimer.o(.bss) for g_stimer
    dtimer.o(i.StopTimer) refers to dtimer.o(.bss) for g_stimer
    dtimer.o(i.TIM3_IRQHandler) refers to os_cpu_a.o(.text) for OS_CPU_SR_Save
    dtimer.o(i.TIM3_IRQHandler) refers to os_core.o(i.OSIntExit) for OSIntExit
    dtimer.o(i.TIM3_IRQHandler) refers to os_core.o(.data) for OSIntNesting
    dtimer.o(i.TIM3_IRQHandler) refers to dtimer.o(.data) for g_msec
    dtimer.o(i.TIM3_IRQHandler) refers to dtimer.o(.bss) for g_stimer
    dtimer.o(i.tmrMsTimeGet) refers to dtimer.o(.data) for g_msec
    flash.o(i.Flash_ErasePage) refers to stm32f10x_flash.o(i.FLASH_WaitForLastOperation) for FLASH_WaitForLastOperation
    flash.o(i.Flash_Read) refers to memcpy.o(.text) for memcpy
    flash.o(i.Flash_Write) refers to flash.o(i.fmemcmp) for fmemcmp
    flash.o(i.Flash_Write) refers to memcpy.o(.text) for __aeabi_memcpy
    flash.o(i.Flash_Write) refers to flash.o(i.Flash_ErasePage) for Flash_ErasePage
    flash.o(i.Flash_Write) refers to flash.o(i.Flash_WritePage) for Flash_WritePage
    flash.o(i.Flash_Write) refers to stm32f10x_flash.o(i.FLASH_WaitForLastOperation) for FLASH_WaitForLastOperation
    flash.o(i.Flash_Write) refers to flash.o(.bss) for FLASH_SWAP
    flash.o(i.Flash_WritePage) refers to stm32f10x_flash.o(i.FLASH_WaitForLastOperation) for FLASH_WaitForLastOperation
    flash.o(i.Flash_WritePage) refers to flash.o(.bss) for FLASH_SWAP
    uart.o(i.Dump) refers to printf8.o(i.__0printf$8) for __2printf
    uart.o(i.fputc) refers to stm32f10x_usart.o(i.USART_SendData) for USART_SendData
    uart.o(i.fputc) refers to stm32f10x_usart.o(i.USART_GetFlagStatus) for USART_GetFlagStatus
    uart.o(i.init_485_uart) refers to stm32_eval.o(i.STM_EVAL_COMInit) for STM_EVAL_COMInit
    uart.o(i.init_485_uart) refers to stm32f10x_usart.o(i.USART_ITConfig) for USART_ITConfig
    uart.o(i.init_485_uart) refers to misc.o(i.NVIC_Init) for NVIC_Init
    uart.o(i.init_485_uart) refers to uart.o(.bss) for g_InitStruct
    uart.o(i.init_dbguart) refers to stm32_eval.o(i.STM_EVAL_COMInit) for STM_EVAL_COMInit
    uart.o(i.init_dbguart) refers to uart.o(.bss) for g_InitStruct
    stm32_eval.o(i.STM_EVAL_COMInit) refers to stm32f10x_rcc.o(i.RCC_APB2PeriphClockCmd) for RCC_APB2PeriphClockCmd
    stm32_eval.o(i.STM_EVAL_COMInit) refers to stm32f10x_rcc.o(i.RCC_APB1PeriphClockCmd) for RCC_APB1PeriphClockCmd
    stm32_eval.o(i.STM_EVAL_COMInit) refers to stm32f10x_gpio.o(i.GPIO_Init) for GPIO_Init
    stm32_eval.o(i.STM_EVAL_COMInit) refers to stm32f10x_usart.o(i.USART_Init) for USART_Init
    stm32_eval.o(i.STM_EVAL_COMInit) refers to stm32f10x_usart.o(i.USART_Cmd) for USART_Cmd
    stm32_eval.o(i.STM_EVAL_COMInit) refers to stm32_eval.o(.constdata) for COM_POR_CLK
    stm32_eval.o(i.STM_EVAL_COMInit) refers to stm32_eval.o(.data) for COM_PORT
    stm32_eval.o(i.STM_EVAL_LEDInit) refers to stm32f10x_rcc.o(i.RCC_APB2PeriphClockCmd) for RCC_APB2PeriphClockCmd
    stm32_eval.o(i.STM_EVAL_LEDInit) refers to stm32f10x_gpio.o(i.GPIO_Init) for GPIO_Init
    stm32_eval.o(i.STM_EVAL_LEDInit) refers to stm32_eval.o(i.STM_EVAL_LEDOff) for STM_EVAL_LEDOff
    stm32_eval.o(i.STM_EVAL_LEDInit) refers to stm32_eval.o(.constdata) for GPIO_CLK
    stm32_eval.o(i.STM_EVAL_LEDInit) refers to stm32_eval.o(.data) for GPIO_PORT
    stm32_eval.o(i.STM_EVAL_LEDOff) refers to stm32_eval.o(.constdata) for GPIO_PIN
    stm32_eval.o(i.STM_EVAL_LEDOff) refers to stm32_eval.o(.data) for GPIO_PORT
    stm32_eval.o(i.STM_EVAL_LEDOn) refers to stm32_eval.o(.constdata) for GPIO_PIN
    stm32_eval.o(i.STM_EVAL_LEDOn) refers to stm32_eval.o(.data) for GPIO_PORT
    stm32_eval.o(i.STM_EVAL_LEDSet) refers to stm32_eval.o(.constdata) for GPIO_PIN
    stm32_eval.o(i.STM_EVAL_LEDSet) refers to stm32_eval.o(.data) for GPIO_PORT
    stm32_eval.o(i.STM_EVAL_LEDToggle) refers to stm32_eval.o(.data) for GPIO_PORT
    stm32_eval.o(i.STM_EVAL_LEDToggle) refers to stm32_eval.o(.constdata) for GPIO_PIN
    stm32_eval.o(i.STM_EVAL_PBGetState) refers to stm32f10x_gpio.o(i.GPIO_ReadInputDataBit) for GPIO_ReadInputDataBit
    stm32_eval.o(i.STM_EVAL_PBGetState) refers to stm32_eval.o(.constdata) for BUTTON_PIN
    stm32_eval.o(i.STM_EVAL_PBGetState) refers to stm32_eval.o(.data) for BUTTON_PORT
    stm32_eval.o(i.STM_EVAL_PBInit) refers to stm32f10x_rcc.o(i.RCC_APB2PeriphClockCmd) for RCC_APB2PeriphClockCmd
    stm32_eval.o(i.STM_EVAL_PBInit) refers to stm32f10x_gpio.o(i.GPIO_Init) for GPIO_Init
    stm32_eval.o(i.STM_EVAL_PBInit) refers to stm32f10x_gpio.o(i.GPIO_EXTILineConfig) for GPIO_EXTILineConfig
    stm32_eval.o(i.STM_EVAL_PBInit) refers to stm32f10x_exti.o(i.EXTI_Init) for EXTI_Init
    stm32_eval.o(i.STM_EVAL_PBInit) refers to misc.o(i.NVIC_Init) for NVIC_Init
    stm32_eval.o(i.STM_EVAL_PBInit) refers to stm32_eval.o(.constdata) for BUTTON_CLK
    stm32_eval.o(i.STM_EVAL_PBInit) refers to stm32_eval.o(.data) for BUTTON_PORT
    system_stm32f10x.o(i.SetSysClock) refers to system_stm32f10x.o(i.SetSysClockTo72) for SetSysClockTo72
    system_stm32f10x.o(i.SystemInit) refers to system_stm32f10x.o(i.SetSysClock) for SetSysClock
    startup_stm32f10x_hd.o(RESET) refers to startup_stm32f10x_hd.o(STACK) for __initial_spTop
    startup_stm32f10x_hd.o(RESET) refers to startup_stm32f10x_hd.o(.text) for Reset_Handler
    startup_stm32f10x_hd.o(RESET) refers to stm32f10x_it.o(i.NMI_Handler) for NMI_Handler
    startup_stm32f10x_hd.o(RESET) refers to stm32f10x_it.o(i.HardFault_Handler) for HardFault_Handler
    startup_stm32f10x_hd.o(RESET) refers to stm32f10x_it.o(i.MemManage_Handler) for MemManage_Handler
    startup_stm32f10x_hd.o(RESET) refers to stm32f10x_it.o(i.BusFault_Handler) for BusFault_Handler
    startup_stm32f10x_hd.o(RESET) refers to stm32f10x_it.o(i.UsageFault_Handler) for UsageFault_Handler
    startup_stm32f10x_hd.o(RESET) refers to stm32f10x_it.o(i.SVC_Handler) for SVC_Handler
    startup_stm32f10x_hd.o(RESET) refers to stm32f10x_it.o(i.DebugMon_Handler) for DebugMon_Handler
    startup_stm32f10x_hd.o(RESET) refers to os_cpu_a.o(.text) for OSPendSV
    startup_stm32f10x_hd.o(RESET) refers to stm32f10x_it.o(i.SysTick_Handler) for SysTick_Handler
    startup_stm32f10x_hd.o(RESET) refers to bsp.o(i.EXTI0_IRQHandler) for EXTI0_IRQHandler
    startup_stm32f10x_hd.o(RESET) refers to stm32f10x_it.o(i.EXTI1_IRQHandler) for EXTI1_IRQHandler
    startup_stm32f10x_hd.o(RESET) refers to dtimer.o(i.TIM3_IRQHandler) for TIM3_IRQHandler
    startup_stm32f10x_hd.o(RESET) refers to bsp.o(i.USART1_IRQHandler) for USART1_IRQHandler
    startup_stm32f10x_hd.o(.text) refers to startup_stm32f10x_hd.o(STACK) for __initial_sp
    startup_stm32f10x_hd.o(.text) refers to entry.o(.ARM.Collect$$$$00000000) for __main
    stm32f10x_adc.o(i.ADC_DeInit) refers to stm32f10x_rcc.o(i.RCC_APB2PeriphResetCmd) for RCC_APB2PeriphResetCmd
    stm32f10x_bkp.o(i.BKP_DeInit) refers to stm32f10x_rcc.o(i.RCC_BackupResetCmd) for RCC_BackupResetCmd
    stm32f10x_can.o(i.CAN_DeInit) refers to stm32f10x_rcc.o(i.RCC_APB1PeriphResetCmd) for RCC_APB1PeriphResetCmd
    stm32f10x_can.o(i.CAN_GetITStatus) refers to stm32f10x_can.o(i.CheckITStatus) for CheckITStatus
    stm32f10x_can.o(i.CAN_Receive) refers to stm32f10x_can.o(i.CAN_FIFORelease) for CAN_FIFORelease
    stm32f10x_dac.o(i.DAC_DeInit) refers to stm32f10x_rcc.o(i.RCC_APB1PeriphResetCmd) for RCC_APB1PeriphResetCmd
    stm32f10x_flash.o(i.FLASH_EnableWriteProtection) refers to stm32f10x_flash.o(i.FLASH_WaitForLastOperation) for FLASH_WaitForLastOperation
    stm32f10x_flash.o(i.FLASH_EraseAllPages) refers to stm32f10x_flash.o(i.FLASH_WaitForLastOperation) for FLASH_WaitForLastOperation
    stm32f10x_flash.o(i.FLASH_EraseOptionBytes) refers to stm32f10x_flash.o(i.FLASH_WaitForLastOperation) for FLASH_WaitForLastOperation
    stm32f10x_flash.o(i.FLASH_ErasePage) refers to stm32f10x_flash.o(i.FLASH_WaitForLastOperation) for FLASH_WaitForLastOperation
    stm32f10x_flash.o(i.FLASH_ProgramHalfWord) refers to stm32f10x_flash.o(i.FLASH_WaitForLastOperation) for FLASH_WaitForLastOperation
    stm32f10x_flash.o(i.FLASH_ProgramOptionByteData) refers to stm32f10x_flash.o(i.FLASH_WaitForLastOperation) for FLASH_WaitForLastOperation
    stm32f10x_flash.o(i.FLASH_ProgramWord) refers to stm32f10x_flash.o(i.FLASH_WaitForLastOperation) for FLASH_WaitForLastOperation
    stm32f10x_flash.o(i.FLASH_ReadOutProtection) refers to stm32f10x_flash.o(i.FLASH_WaitForLastOperation) for FLASH_WaitForLastOperation
    stm32f10x_flash.o(i.FLASH_UserOptionByteConfig) refers to stm32f10x_flash.o(i.FLASH_WaitForLastOperation) for FLASH_WaitForLastOperation
    stm32f10x_flash.o(i.FLASH_WaitForLastOperation) refers to stm32f10x_flash.o(i.FLASH_GetStatus) for FLASH_GetStatus
    stm32f10x_flash.o(i.FLASH_WaitForLastOperation) refers to stm32f10x_flash.o(i.delay) for delay
    stm32f10x_gpio.o(i.GPIO_AFIODeInit) refers to stm32f10x_rcc.o(i.RCC_APB2PeriphResetCmd) for RCC_APB2PeriphResetCmd
    stm32f10x_gpio.o(i.GPIO_DeInit) refers to stm32f10x_rcc.o(i.RCC_APB2PeriphResetCmd) for RCC_APB2PeriphResetCmd
    stm32f10x_i2c.o(i.I2C_DeInit) refers to stm32f10x_rcc.o(i.RCC_APB1PeriphResetCmd) for RCC_APB1PeriphResetCmd
    stm32f10x_i2c.o(i.I2C_Init) refers to stm32f10x_rcc.o(i.RCC_GetClocksFreq) for RCC_GetClocksFreq
    stm32f10x_pwr.o(i.PWR_DeInit) refers to stm32f10x_rcc.o(i.RCC_APB1PeriphResetCmd) for RCC_APB1PeriphResetCmd
    stm32f10x_rcc.o(i.RCC_GetClocksFreq) refers to stm32f10x_rcc.o(.data) for APBAHBPrescTable
    stm32f10x_rcc.o(i.RCC_WaitForHSEStartUp) refers to stm32f10x_rcc.o(i.RCC_GetFlagStatus) for RCC_GetFlagStatus
    stm32f10x_rtc.o(i.RTC_SetAlarm) refers to stm32f10x_rtc.o(i.RTC_EnterConfigMode) for RTC_EnterConfigMode
    stm32f10x_rtc.o(i.RTC_SetAlarm) refers to stm32f10x_rtc.o(i.RTC_ExitConfigMode) for RTC_ExitConfigMode
    stm32f10x_rtc.o(i.RTC_SetCounter) refers to stm32f10x_rtc.o(i.RTC_EnterConfigMode) for RTC_EnterConfigMode
    stm32f10x_rtc.o(i.RTC_SetCounter) refers to stm32f10x_rtc.o(i.RTC_ExitConfigMode) for RTC_ExitConfigMode
    stm32f10x_rtc.o(i.RTC_SetPrescaler) refers to stm32f10x_rtc.o(i.RTC_EnterConfigMode) for RTC_EnterConfigMode
    stm32f10x_rtc.o(i.RTC_SetPrescaler) refers to stm32f10x_rtc.o(i.RTC_ExitConfigMode) for RTC_ExitConfigMode
    stm32f10x_spi.o(i.I2S_Init) refers to stm32f10x_rcc.o(i.RCC_GetClocksFreq) for RCC_GetClocksFreq
    stm32f10x_spi.o(i.SPI_I2S_DeInit) refers to stm32f10x_rcc.o(i.RCC_APB2PeriphResetCmd) for RCC_APB2PeriphResetCmd
    stm32f10x_spi.o(i.SPI_I2S_DeInit) refers to stm32f10x_rcc.o(i.RCC_APB1PeriphResetCmd) for RCC_APB1PeriphResetCmd
    stm32f10x_tim.o(i.TIM_DeInit) refers to stm32f10x_rcc.o(i.RCC_APB2PeriphResetCmd) for RCC_APB2PeriphResetCmd
    stm32f10x_tim.o(i.TIM_DeInit) refers to stm32f10x_rcc.o(i.RCC_APB1PeriphResetCmd) for RCC_APB1PeriphResetCmd
    stm32f10x_tim.o(i.TIM_ETRClockMode1Config) refers to stm32f10x_tim.o(i.TIM_ETRConfig) for TIM_ETRConfig
    stm32f10x_tim.o(i.TIM_ETRClockMode2Config) refers to stm32f10x_tim.o(i.TIM_ETRConfig) for TIM_ETRConfig
    stm32f10x_tim.o(i.TIM_ICInit) refers to stm32f10x_tim.o(i.TI1_Config) for TI1_Config
    stm32f10x_tim.o(i.TIM_ICInit) refers to stm32f10x_tim.o(i.TIM_SetIC1Prescaler) for TIM_SetIC1Prescaler
    stm32f10x_tim.o(i.TIM_ICInit) refers to stm32f10x_tim.o(i.TI2_Config) for TI2_Config
    stm32f10x_tim.o(i.TIM_ICInit) refers to stm32f10x_tim.o(i.TIM_SetIC2Prescaler) for TIM_SetIC2Prescaler
    stm32f10x_tim.o(i.TIM_ICInit) refers to stm32f10x_tim.o(i.TI3_Config) for TI3_Config
    stm32f10x_tim.o(i.TIM_ICInit) refers to stm32f10x_tim.o(i.TIM_SetIC3Prescaler) for TIM_SetIC3Prescaler
    stm32f10x_tim.o(i.TIM_ICInit) refers to stm32f10x_tim.o(i.TI4_Config) for TI4_Config
    stm32f10x_tim.o(i.TIM_ICInit) refers to stm32f10x_tim.o(i.TIM_SetIC4Prescaler) for TIM_SetIC4Prescaler
    stm32f10x_tim.o(i.TIM_ITRxExternalClockConfig) refers to stm32f10x_tim.o(i.TIM_SelectInputTrigger) for TIM_SelectInputTrigger
    stm32f10x_tim.o(i.TIM_PWMIConfig) refers to stm32f10x_tim.o(i.TI1_Config) for TI1_Config
    stm32f10x_tim.o(i.TIM_PWMIConfig) refers to stm32f10x_tim.o(i.TIM_SetIC1Prescaler) for TIM_SetIC1Prescaler
    stm32f10x_tim.o(i.TIM_PWMIConfig) refers to stm32f10x_tim.o(i.TI2_Config) for TI2_Config
    stm32f10x_tim.o(i.TIM_PWMIConfig) refers to stm32f10x_tim.o(i.TIM_SetIC2Prescaler) for TIM_SetIC2Prescaler
    stm32f10x_tim.o(i.TIM_TIxExternalClockConfig) refers to stm32f10x_tim.o(i.TI2_Config) for TI2_Config
    stm32f10x_tim.o(i.TIM_TIxExternalClockConfig) refers to stm32f10x_tim.o(i.TI1_Config) for TI1_Config
    stm32f10x_tim.o(i.TIM_TIxExternalClockConfig) refers to stm32f10x_tim.o(i.TIM_SelectInputTrigger) for TIM_SelectInputTrigger
    stm32f10x_usart.o(i.USART_DeInit) refers to stm32f10x_rcc.o(i.RCC_APB2PeriphResetCmd) for RCC_APB2PeriphResetCmd
    stm32f10x_usart.o(i.USART_DeInit) refers to stm32f10x_rcc.o(i.RCC_APB1PeriphResetCmd) for RCC_APB1PeriphResetCmd
    stm32f10x_usart.o(i.USART_Init) refers to stm32f10x_rcc.o(i.RCC_GetClocksFreq) for RCC_GetClocksFreq
    stm32f10x_wwdg.o(i.WWDG_DeInit) refers to stm32f10x_rcc.o(i.RCC_APB1PeriphResetCmd) for RCC_APB1PeriphResetCmd
    spi_cc1100.o(i.CC1100Init) refers to spi_cc1100.o(i.SPI_CC1100_Init) for SPI_CC1100_Init
    spi_cc1100.o(i.CC1100Init) refers to spi_cc1100.o(i.halSpiReadStatus) for halSpiReadStatus
    spi_cc1100.o(i.CC1100Init) refers to printf8.o(i.__0printf$8) for __2printf
    spi_cc1100.o(i.CC1100Init) refers to spi_cc1100.o(i.halSpiWriteReg) for halSpiWriteReg
    spi_cc1100.o(i.CC1100Test) refers to spi_cc1100.o(i.CC1100Init) for CC1100Init
    spi_cc1100.o(i.CC1100Test) refers to spi_cc1100.o(i.SendData) for SendData
    spi_cc1100.o(i.CC1100Test) refers to printf8.o(i.__0printf$8) for __2printf
    spi_cc1100.o(i.CC1100Test) refers to spi_cc1100.o(.data) for menuBuffer
    spi_cc1100.o(i.PacketReceive) refers to spi_cc1100.o(i.halSpiWriteReg) for halSpiWriteReg
    spi_cc1100.o(i.PacketReceive) refers to spi_cc1100.o(i.halSpiStrobe) for halSpiStrobe
    spi_cc1100.o(i.PacketReceive) refers to dtimer.o(i.tmrMsTimeGet) for tmrMsTimeGet
    spi_cc1100.o(i.PacketReceive) refers to stm32f10x_gpio.o(i.GPIO_ReadInputDataBit) for GPIO_ReadInputDataBit
    spi_cc1100.o(i.PacketReceive) refers to os_time.o(i.OSTimeDly) for OSTimeDly
    spi_cc1100.o(i.PacketReceive) refers to spi_cc1100.o(i.halSpiReadReg) for halSpiReadReg
    spi_cc1100.o(i.PacketReceive) refers to spi_cc1100.o(i.halSpiReadBurstReg) for halSpiReadBurstReg
    spi_cc1100.o(i.PacketReceive) refers to spi_cc1100.o(.bss) for rxData
    spi_cc1100.o(i.PacketSend) refers to spi_cc1100.o(i.halSpiWriteReg) for halSpiWriteReg
    spi_cc1100.o(i.PacketSend) refers to spi_cc1100.o(i.halSpiWriteBurstReg) for halSpiWriteBurstReg
    spi_cc1100.o(i.PacketSend) refers to spi_cc1100.o(i.halSpiStrobe) for halSpiStrobe
    spi_cc1100.o(i.PacketSend) refers to stm32f10x_gpio.o(i.GPIO_ReadInputDataBit) for GPIO_ReadInputDataBit
    spi_cc1100.o(i.PacketSend) refers to spi_cc1100.o(.bss) for txData
    spi_cc1100.o(i.RESET_CCxxx0) refers to stm32f10x_gpio.o(i.GPIO_ReadInputDataBit) for GPIO_ReadInputDataBit
    spi_cc1100.o(i.RESET_CCxxx0) refers to spi_cc1100.o(i.SPI_RxTxByte) for SPI_RxTxByte
    spi_cc1100.o(i.ReceiveData) refers to spi_cc1100.o(i.PacketReceive) for PacketReceive
    spi_cc1100.o(i.ReceiveData) refers to spi_cc1100.o(.bss) for rxData
    spi_cc1100.o(i.SPI_CC1100_Init) refers to stm32f10x_rcc.o(i.RCC_APB2PeriphClockCmd) for RCC_APB2PeriphClockCmd
    spi_cc1100.o(i.SPI_CC1100_Init) refers to stm32f10x_gpio.o(i.GPIO_Init) for GPIO_Init
    spi_cc1100.o(i.SPI_CC1100_Init) refers to stm32f10x_spi.o(i.SPI_Init) for SPI_Init
    spi_cc1100.o(i.SPI_CC1100_Init) refers to stm32f10x_spi.o(i.SPI_Cmd) for SPI_Cmd
    spi_cc1100.o(i.SPI_CC1100_SendByte) refers to stm32f10x_spi.o(i.SPI_I2S_GetFlagStatus) for SPI_I2S_GetFlagStatus
    spi_cc1100.o(i.SPI_CC1100_SendByte) refers to stm32f10x_spi.o(i.SPI_I2S_SendData) for SPI_I2S_SendData
    spi_cc1100.o(i.SendData) refers to spi_cc1100.o(i.PacketSend) for PacketSend
    spi_cc1100.o(i.SendData) refers to spi_cc1100.o(.bss) for txData
    spi_cc1100.o(i.halRfWriteRfSettings) refers to spi_cc1100.o(i.halSpiWriteReg) for halSpiWriteReg
    spi_cc1100.o(i.halSpiReadBurstReg) refers to spi_cc1100.o(i.SPI_RxTxByte) for SPI_RxTxByte
    spi_cc1100.o(i.halSpiReadReg) refers to spi_cc1100.o(i.SPI_RxTxByte) for SPI_RxTxByte
    spi_cc1100.o(i.halSpiReadStatus) refers to spi_cc1100.o(i.SPI_RxTxByte) for SPI_RxTxByte
    spi_cc1100.o(i.halSpiStrobe) refers to stm32f10x_gpio.o(i.GPIO_ReadInputDataBit) for GPIO_ReadInputDataBit
    spi_cc1100.o(i.halSpiStrobe) refers to spi_cc1100.o(i.SPI_RxTxByte) for SPI_RxTxByte
    spi_cc1100.o(i.halSpiWriteBurstReg) refers to spi_cc1100.o(i.SPI_RxTxByte) for SPI_RxTxByte
    spi_cc1100.o(i.halSpiWriteReg) refers to spi_cc1100.o(i.SPI_RxTxByte) for SPI_RxTxByte
    mrfi.o(i.ConfigCC1100) refers to mrfi.o(i.mrfiSpiWriteReg) for mrfiSpiWriteReg
    mrfi.o(i.ConfigCC1100) refers to mrfi.o(.constdata) for mrfiRadioCfg
    mrfi.o(i.MRFI_CheckSameSystemID) refers to wers.o(.data) for g_WERSSystemId
    mrfi.o(i.MRFI_DelayMs) refers to dtimer.o(i.mDelay) for mDelay
    mrfi.o(i.MRFI_DisableRxAddrFilter) refers to mrfi.o(i.mrfiSpiWriteReg) for mrfiSpiWriteReg
    mrfi.o(i.MRFI_DisableRxAddrFilter) refers to mrfi.o(.data) for mrfiRxFilterEnabled
    mrfi.o(i.MRFI_EnableRxAddrFilter) refers to printf8.o(i.__0printf$8) for __2printf
    mrfi.o(i.MRFI_EnableRxAddrFilter) refers to mrfi.o(.data) for mrfiRxFilterAddr
    mrfi.o(i.MRFI_EnableRxAddrFilter) refers to mrfi.o(.constdata) for mrfiBroadcastAddr
    mrfi.o(i.MRFI_GetRadioState) refers to mrfi.o(.data) for mrfiRadioState
    mrfi.o(i.MRFI_GpioIsr) refers to mrfi.o(i.Mrfi_SyncPinRxIsr) for Mrfi_SyncPinRxIsr
    mrfi.o(i.MRFI_GpioIsr) refers to stm32_eval.o(i.STM_EVAL_LEDSet) for STM_EVAL_LEDSet
    mrfi.o(i.MRFI_GpioIsr) refers to mrfi.o(.data) for g_intr_idle
    mrfi.o(i.MRFI_Init) refers to os_cpu_a.o(.text) for OS_CPU_SR_Save
    mrfi.o(i.MRFI_Init) refers to memseta.o(.text) for __aeabi_memclr
    mrfi.o(i.MRFI_Init) refers to mrfi.o(i.mrfiSpiInit) for mrfiSpiInit
    mrfi.o(i.MRFI_Init) refers to printf8.o(i.__0printf$8) for __2printf
    mrfi.o(i.MRFI_Init) refers to mrfi.o(i.Mrfi_DelayUsec) for Mrfi_DelayUsec
    mrfi.o(i.MRFI_Init) refers to spi_cc1100.o(i.SPI_RxTxByte) for SPI_RxTxByte
    mrfi.o(i.MRFI_Init) refers to mrfi.o(i.mrfiSpiReadReg) for mrfiSpiReadReg
    mrfi.o(i.MRFI_Init) refers to mrfi.o(i.mrfiSpiWriteReg) for mrfiSpiWriteReg
    mrfi.o(i.MRFI_Init) refers to mrfi.o(i.MRFI_SetLogicalChannel) for MRFI_SetLogicalChannel
    mrfi.o(i.MRFI_Init) refers to mrfi.o(i.mrfiSpiCmdStrobe) for mrfiSpiCmdStrobe
    mrfi.o(i.MRFI_Init) refers to mrfi.o(i.Mrfi_RxModeOff) for Mrfi_RxModeOff
    mrfi.o(i.MRFI_Init) refers to mrfi.o(.data) for g_intr_idle
    mrfi.o(i.MRFI_Init) refers to mrfi.o(.bss) for mrfiIncomingPacket
    mrfi.o(i.MRFI_Init) refers to mrfi.o(.constdata) for __FUNCTION__
    mrfi.o(i.MRFI_RandomByte) refers to mrfi.o(.data) for mrfiRndSeed
    mrfi.o(i.MRFI_Receive) refers to memcpy.o(.text) for __aeabi_memcpy
    mrfi.o(i.MRFI_Receive) refers to mrfi.o(.bss) for mrfiIncomingPacket
    mrfi.o(i.MRFI_Rssi) refers to printf8.o(i.__0printf$8) for __2printf
    mrfi.o(i.MRFI_Rssi) refers to mrfi.o(i.mrfiSpiReadReg) for mrfiSpiReadReg
    mrfi.o(i.MRFI_Rssi) refers to mrfi.o(i.Mrfi_DelayUsec) for Mrfi_DelayUsec
    mrfi.o(i.MRFI_Rssi) refers to mrfi.o(i.Mrfi_CalculateRssi) for Mrfi_CalculateRssi
    mrfi.o(i.MRFI_Rssi) refers to mrfi.o(.data) for mrfiRadioState
    mrfi.o(i.MRFI_Rssi) refers to mrfi.o(.constdata) for __FUNCTION__
    mrfi.o(i.MRFI_RssiValidWait) refers to mrfi.o(i.mrfiSpiReadReg) for mrfiSpiReadReg
    mrfi.o(i.MRFI_RssiValidWait) refers to mrfi.o(i.Mrfi_DelayUsec) for Mrfi_DelayUsec
    mrfi.o(i.MRFI_RxAddrIsFiltered) refers to mrfi.o(.data) for mrfiRxFilterEnabled
    mrfi.o(i.MRFI_RxAddrIsFiltered) refers to mrfi.o(.constdata) for mrfiBroadcastAddr
    mrfi.o(i.MRFI_RxIdle) refers to printf8.o(i.__0printf$8) for __2printf
    mrfi.o(i.MRFI_RxIdle) refers to mrfi.o(i.Mrfi_RxModeOff) for Mrfi_RxModeOff
    mrfi.o(i.MRFI_RxIdle) refers to mrfi.o(.data) for mrfiRadioState
    mrfi.o(i.MRFI_RxIdle) refers to mrfi.o(.constdata) for __FUNCTION__
    mrfi.o(i.MRFI_RxOn) refers to printf8.o(i.__0printf$8) for __2printf
    mrfi.o(i.MRFI_RxOn) refers to mrfi.o(i.Mrfi_RxModeOn) for Mrfi_RxModeOn
    mrfi.o(i.MRFI_RxOn) refers to mrfi.o(.data) for mrfiRadioState
    mrfi.o(i.MRFI_RxOn) refers to mrfi.o(.constdata) for __FUNCTION__
    mrfi.o(i.MRFI_SetLogicalChannel) refers to printf8.o(i.__0printf$8) for __2printf
    mrfi.o(i.MRFI_SetLogicalChannel) refers to mrfi.o(i.Mrfi_RxModeOff) for Mrfi_RxModeOff
    mrfi.o(i.MRFI_SetLogicalChannel) refers to mrfi.o(i.mrfiSpiWriteReg) for mrfiSpiWriteReg
    mrfi.o(i.MRFI_SetLogicalChannel) refers to mrfi.o(i.Mrfi_RxModeOn) for Mrfi_RxModeOn
    mrfi.o(i.MRFI_SetLogicalChannel) refers to mrfi.o(.constdata) for __FUNCTION__
    mrfi.o(i.MRFI_SetLogicalChannel) refers to mrfi.o(.data) for mrfiRadioState
    mrfi.o(i.MRFI_SetRxAddrFilter) refers to printf8.o(i.__0printf$8) for __2printf
    mrfi.o(i.MRFI_SetRxAddrFilter) refers to mrfi.o(.constdata) for mrfiBroadcastAddr
    mrfi.o(i.MRFI_SetRxAddrFilter) refers to mrfi.o(.data) for mrfiRxFilterAddr
    mrfi.o(i.MRFI_Sleep) refers to os_cpu_a.o(.text) for OS_CPU_SR_Save
    mrfi.o(i.MRFI_Sleep) refers to mrfi.o(i.MRFI_RxIdle) for MRFI_RxIdle
    mrfi.o(i.MRFI_Sleep) refers to mrfi.o(i.mrfiSpiCmdStrobe) for mrfiSpiCmdStrobe
    mrfi.o(i.MRFI_Sleep) refers to mrfi.o(.data) for mrfiRadioState
    mrfi.o(i.MRFI_Transmit) refers to printf8.o(i.__0printf$8) for __2printf
    mrfi.o(i.MRFI_Transmit) refers to os_cpu_a.o(.text) for OS_CPU_SR_Save
    mrfi.o(i.MRFI_Transmit) refers to mrfi.o(i.Mrfi_RxModeOff) for Mrfi_RxModeOff
    mrfi.o(i.MRFI_Transmit) refers to mrfi.o(i.mrfiSpiWriteTxFifo) for mrfiSpiWriteTxFifo
    mrfi.o(i.MRFI_Transmit) refers to mrfi.o(i.mrfiSpiCmdStrobe) for mrfiSpiCmdStrobe
    mrfi.o(i.MRFI_Transmit) refers to mrfi.o(i.mrfiSpiWriteReg) for mrfiSpiWriteReg
    mrfi.o(i.MRFI_Transmit) refers to mrfi.o(i.mrfiSpiReadReg) for mrfiSpiReadReg
    mrfi.o(i.MRFI_Transmit) refers to mrfi.o(i.Mrfi_DelayUsec) for Mrfi_DelayUsec
    mrfi.o(i.MRFI_Transmit) refers to mrfi.o(i.Mrfi_RandomBackoffDelay) for Mrfi_RandomBackoffDelay
    mrfi.o(i.MRFI_Transmit) refers to mrfi.o(i.Mrfi_RxModeOn) for Mrfi_RxModeOn
    mrfi.o(i.MRFI_Transmit) refers to mrfi.o(.data) for mrfiRadioState
    mrfi.o(i.MRFI_Transmit) refers to mrfi.o(.constdata) for __FUNCTION__
    mrfi.o(i.MRFI_WakeUp) refers to mrfi.o(i.mrfiSpiWriteReg) for mrfiSpiWriteReg
    mrfi.o(i.MRFI_WakeUp) refers to mrfi.o(i.mrfiSpiCmdStrobe) for mrfiSpiCmdStrobe
    mrfi.o(i.MRFI_WakeUp) refers to mrfi.o(.data) for mrfiRadioState
    mrfi.o(i.Mrfi_DelayUsec) refers to os_cpu_a.o(.text) for OS_CPU_SR_Save
    mrfi.o(i.Mrfi_DelayUsec) refers to dtimer.o(i.uDelay) for uDelay
    mrfi.o(i.Mrfi_RandomBackoffDelay) refers to mrfi.o(i.MRFI_RandomByte) for MRFI_RandomByte
    mrfi.o(i.Mrfi_RandomBackoffDelay) refers to mrfi.o(i.Mrfi_DelayUsec) for Mrfi_DelayUsec
    mrfi.o(i.Mrfi_RandomBackoffDelay) refers to mrfi.o(.data) for sBackoffHelper
    mrfi.o(i.Mrfi_RxModeOff) refers to mrfi.o(i.mrfiSpiCmdStrobe) for mrfiSpiCmdStrobe
    mrfi.o(i.Mrfi_RxModeOn) refers to mrfi.o(i.mrfiSpiCmdStrobe) for mrfiSpiCmdStrobe
    mrfi.o(i.Mrfi_SyncPinRxIsr) refers to printf8.o(i.__0printf$8) for __2printf
    mrfi.o(i.Mrfi_SyncPinRxIsr) refers to mrfi.o(i.mrfiSpiReadReg) for mrfiSpiReadReg
    mrfi.o(i.Mrfi_SyncPinRxIsr) refers to mrfi.o(i.mrfiSpiReadRxFifo) for mrfiSpiReadRxFifo
    mrfi.o(i.Mrfi_SyncPinRxIsr) refers to os_cpu_a.o(.text) for OS_CPU_SR_Save
    mrfi.o(i.Mrfi_SyncPinRxIsr) refers to mrfi.o(i.mrfiSpiCmdStrobe) for mrfiSpiCmdStrobe
    mrfi.o(i.Mrfi_SyncPinRxIsr) refers to memseta.o(.text) for __aeabi_memclr
    mrfi.o(i.Mrfi_SyncPinRxIsr) refers to mrfi.o(i.MRFI_RxAddrIsFiltered) for MRFI_RxAddrIsFiltered
    mrfi.o(i.Mrfi_SyncPinRxIsr) refers to mrfi.o(i.MRFI_CheckSameSystemID) for MRFI_CheckSameSystemID
    mrfi.o(i.Mrfi_SyncPinRxIsr) refers to mrfi.o(i.Mrfi_CalculateRssi) for Mrfi_CalculateRssi
    mrfi.o(i.Mrfi_SyncPinRxIsr) refers to nwk_frame.o(i.MRFI_RxCompleteISR) for MRFI_RxCompleteISR
    mrfi.o(i.Mrfi_SyncPinRxIsr) refers to mrfi.o(.data) for mrfiRadioState
    mrfi.o(i.Mrfi_SyncPinRxIsr) refers to mrfi.o(.constdata) for __FUNCTION__
    mrfi.o(i.Mrfi_SyncPinRxIsr) refers to mrfi.o(.bss) for mrfiIncomingPacket
    mrfi.o(i.ResetReceive) refers to os_cpu_a.o(.text) for OS_CPU_SR_Save
    mrfi.o(i.ResetReceive) refers to mrfi.o(i.mrfiSpiCmdStrobe) for mrfiSpiCmdStrobe
    mrfi.o(i.mrfiSpiCmdStrobe) refers to os_cpu_a.o(.text) for OS_CPU_SR_Save
    mrfi.o(i.mrfiSpiCmdStrobe) refers to spi_cc1100.o(i.SPI_RxTxByte) for SPI_RxTxByte
    mrfi.o(i.mrfiSpiCmdStrobe) refers to mrfi.o(i.mrfi_delay) for mrfi_delay
    mrfi.o(i.mrfiSpiInit) refers to spi_cc1100.o(i.SPI_CC1100_Init) for SPI_CC1100_Init
    mrfi.o(i.mrfiSpiReadReg) refers to mrfi.o(i.spiRegAccess) for spiRegAccess
    mrfi.o(i.mrfiSpiReadRxFifo) refers to mrfi.o(i.spiBurstFifoAccess) for spiBurstFifoAccess
    mrfi.o(i.mrfiSpiWriteReg) refers to mrfi.o(i.spiRegAccess) for spiRegAccess
    mrfi.o(i.mrfiSpiWriteTxFifo) refers to mrfi.o(i.spiBurstFifoAccess) for spiBurstFifoAccess
    mrfi.o(i.spiBurstFifoAccess) refers to os_cpu_a.o(.text) for OS_CPU_SR_Save
    mrfi.o(i.spiBurstFifoAccess) refers to spi_cc1100.o(i.SPI_RxTxByte) for SPI_RxTxByte
    mrfi.o(i.spiBurstFifoAccess) refers to mrfi.o(i.mrfi_delay) for mrfi_delay
    mrfi.o(i.spiRegAccess) refers to os_cpu_a.o(.text) for OS_CPU_SR_Save
    mrfi.o(i.spiRegAccess) refers to spi_cc1100.o(i.SPI_RxTxByte) for SPI_RxTxByte
    mrfi.o(i.spiRegAccess) refers to mrfi.o(i.mrfi_delay) for mrfi_delay
    bsp.o(i.BSP_InitForCC1100) refers to stm32f10x_rcc.o(i.RCC_APB2PeriphClockCmd) for RCC_APB2PeriphClockCmd
    bsp.o(i.BSP_InitForCC1100) refers to stm32f10x_gpio.o(i.GPIO_Init) for GPIO_Init
    bsp.o(i.BSP_InitForCC1100) refers to bsp.o(i.RegMrfiIsr) for RegMrfiIsr
    bsp.o(i.BSP_InitForCC1100) refers to stm32f10x_gpio.o(i.GPIO_EXTILineConfig) for GPIO_EXTILineConfig
    bsp.o(i.BSP_InitForCC1100) refers to stm32f10x_exti.o(i.EXTI_Init) for EXTI_Init
    bsp.o(i.BSP_InitForCC1100) refers to misc.o(i.NVIC_Init) for NVIC_Init
    bsp.o(i.BSP_InitForCC1100) refers to mrfi.o(i.MRFI_GpioIsr) for MRFI_GpioIsr
    bsp.o(i.EXTI0_IRQHandler) refers to os_cpu_a.o(.text) for OS_CPU_SR_Save
    bsp.o(i.EXTI0_IRQHandler) refers to stm32f10x_exti.o(i.EXTI_GetITStatus) for EXTI_GetITStatus
    bsp.o(i.EXTI0_IRQHandler) refers to stm32f10x_exti.o(i.EXTI_ClearITPendingBit) for EXTI_ClearITPendingBit
    bsp.o(i.EXTI0_IRQHandler) refers to os_core.o(i.OSIntExit) for OSIntExit
    bsp.o(i.EXTI0_IRQHandler) refers to os_core.o(.data) for OSIntNesting
    bsp.o(i.EXTI0_IRQHandler) refers to bsp.o(.data) for pMRFI_GpioIsr
    bsp.o(i.RegMrfiIsr) refers to os_cpu_a.o(.text) for OS_CPU_SR_Save
    bsp.o(i.RegMrfiIsr) refers to bsp.o(.data) for pMRFI_GpioIsr
    bsp.o(i.ReleaseMrfiIsr) refers to os_cpu_a.o(.text) for OS_CPU_SR_Save
    bsp.o(i.ReleaseMrfiIsr) refers to bsp.o(.data) for pMRFI_GpioIsr
    bsp.o(i.USART1_IRQHandler) refers to os_cpu_a.o(.text) for OS_CPU_SR_Save
    bsp.o(i.USART1_IRQHandler) refers to wers.o(i.WERSPCPridge) for WERSPCPridge
    bsp.o(i.USART1_IRQHandler) refers to os_core.o(i.OSIntExit) for OSIntExit
    bsp.o(i.USART1_IRQHandler) refers to os_core.o(.data) for OSIntNesting
    nwk.o(i.initializeConnection) refers to nwk.o(i.map_lid2idx) for map_lid2idx
    nwk.o(i.initializeConnection) refers to nwk.o(.data) for sPersistInfo
    nwk.o(i.map_lid2idx) refers to nwk.o(.data) for sPersistInfo
    nwk.o(i.nwk_ResetSet) refers to nwk.o(.data) for gs_pReset
    nwk.o(i.nwk_allocateLocalRxPort) refers to memseta.o(.text) for __aeabi_memclr4
    nwk.o(i.nwk_allocateLocalRxPort) refers to memcmp.o(.text) for memcmp
    nwk.o(i.nwk_allocateLocalRxPort) refers to nwk.o(.data) for sPersistInfo
    nwk.o(i.nwk_findAddressMatch) refers to memcmp.o(.text) for memcmp
    nwk.o(i.nwk_findAddressMatch) refers to nwk.o(.data) for sPersistInfo
    nwk.o(i.nwk_findAlreadyJoined) refers to memcmp.o(.text) for memcmp
    nwk.o(i.nwk_findAlreadyJoined) refers to nwk.o(i.initializeConnection) for initializeConnection
    nwk.o(i.nwk_findAlreadyJoined) refers to nwk.o(.data) for sPersistInfo
    nwk.o(i.nwk_freeConnectionEx) refers to printf8.o(i.__0printf$8) for __2printf
    nwk.o(i.nwk_freeConnectionEx) refers to nwk.o(i.nwk_freeConnection) for nwk_freeConnection
    nwk.o(i.nwk_freeConnectionEx) refers to nwk.o(.data) for sPersistInfo
    nwk.o(i.nwk_getConnInfo) refers to nwk.o(i.map_lid2idx) for map_lid2idx
    nwk.o(i.nwk_getConnInfo) refers to nwk.o(.data) for sPersistInfo
    nwk.o(i.nwk_getFreeConnection) refers to nwk.o(.data) for sPersistInfo
    nwk.o(i.nwk_getNextConnection) refers to nwk.o(i.initializeConnection) for initializeConnection
    nwk.o(i.nwk_getNextConnection) refers to nwk.o(.data) for sPersistInfo
    nwk.o(i.nwk_isConnectionValid) refers to memcmp.o(.text) for memcmp
    nwk.o(i.nwk_isConnectionValid) refers to nwk.o(.data) for sPersistInfo
    nwk.o(i.nwk_isJoined) refers to memcmp.o(.text) for memcmp
    nwk.o(i.nwk_isJoined) refers to nwk.o(.data) for sPersistInfo
    nwk.o(i.nwk_isLinkDuplicate) refers to memcmp.o(.text) for memcmp
    nwk.o(i.nwk_isLinkDuplicate) refers to nwk.o(.data) for sPersistInfo
    nwk.o(i.nwk_isLinked) refers to memcmp.o(.text) for memcmp
    nwk.o(i.nwk_isLinked) refers to nwk.o(.data) for sPersistInfo
    nwk.o(i.nwk_isValidReply) refers to nwk_globals.o(i.nwk_getMyAddress) for nwk_getMyAddress
    nwk.o(i.nwk_isValidReply) refers to memcmp.o(.text) for memcmp
    nwk.o(i.nwk_nwkInit) refers to memseta.o(.text) for __aeabi_memclr
    nwk.o(i.nwk_nwkInit) refers to nwk_globals.o(i.nwk_globalsInit) for nwk_globalsInit
    nwk.o(i.nwk_nwkInit) refers to nwk_frame.o(i.nwk_frameInit) for nwk_frameInit
    nwk.o(i.nwk_nwkInit) refers to nwk_qmgmt.o(i.nwk_QInit) for nwk_QInit
    nwk.o(i.nwk_nwkInit) refers to nwk_freq.o(i.nwk_freqInit) for nwk_freqInit
    nwk.o(i.nwk_nwkInit) refers to nwk_ping.o(i.nwk_pingInit) for nwk_pingInit
    nwk.o(i.nwk_nwkInit) refers to nwk_join.o(i.nwk_joinInit) for nwk_joinInit
    nwk.o(i.nwk_nwkInit) refers to nwk_mgmt.o(i.nwk_mgmtInit) for nwk_mgmtInit
    nwk.o(i.nwk_nwkInit) refers to nwk_link.o(i.nwk_linkInit) for nwk_linkInit
    nwk.o(i.nwk_nwkInit) refers to nwk_security.o(i.nwk_securityInit) for nwk_securityInit
    nwk.o(i.nwk_nwkInit) refers to nwk_globals.o(i.nwk_getBCastAddress) for nwk_getBCastAddress
    nwk.o(i.nwk_nwkInit) refers to nwk.o(.data) for sPersistInfo
    nwk.o(i.nwk_saveJoinedDevice) refers to memcmp.o(.text) for memcmp
    nwk.o(i.nwk_saveJoinedDevice) refers to nwk.o(.data) for sPersistInfo
    nwk_api.o(i.SMPL_Init) refers to mrfi.o(i.MRFI_Init) for MRFI_Init
    nwk_api.o(i.SMPL_Init) refers to nwk.o(i.nwk_nwkInit) for nwk_nwkInit
    nwk_api.o(i.SMPL_Init) refers to mrfi.o(i.MRFI_WakeUp) for MRFI_WakeUp
    nwk_api.o(i.SMPL_Init) refers to mrfi.o(i.MRFI_RxOn) for MRFI_RxOn
    nwk_api.o(i.SMPL_Init) refers to nwk_globals.o(i.nwk_getMyAddress) for nwk_getMyAddress
    nwk_api.o(i.SMPL_Init) refers to mrfi.o(i.MRFI_SetRxAddrFilter) for MRFI_SetRxAddrFilter
    nwk_api.o(i.SMPL_Init) refers to mrfi.o(i.MRFI_EnableRxAddrFilter) for MRFI_EnableRxAddrFilter
    nwk_api.o(i.SMPL_Init) refers to bsp.o(i.BSP_InitForCC1100) for BSP_InitForCC1100
    nwk_api.o(i.SMPL_Init) refers to nwk_join.o(i.nwk_join) for nwk_join
    nwk_api.o(i.SMPL_Init) refers to nwk_api.o(.data) for sInit_done
    nwk_api.o(i.SMPL_Ioctl) refers to nwk_ioctl.o(i.nwk_connectionControl) for nwk_connectionControl
    nwk_api.o(i.SMPL_Ioctl) refers to nwk_ioctl.o(i.nwk_deviceAddress) for nwk_deviceAddress
    nwk_api.o(i.SMPL_Ioctl) refers to nwk_ioctl.o(i.nwk_rawSend) for nwk_rawSend
    nwk_api.o(i.SMPL_Ioctl) refers to nwk_ioctl.o(i.nwk_rawReceive) for nwk_rawReceive
    nwk_api.o(i.SMPL_Ioctl) refers to nwk_ioctl.o(i.nwk_radioControl) for nwk_radioControl
    nwk_api.o(i.SMPL_Ioctl) refers to nwk_ioctl.o(i.nwk_joinContext) for nwk_joinContext
    nwk_api.o(i.SMPL_Ioctl) refers to nwk_mgmt.o(i.broadcast_nwk_reset) for broadcast_nwk_reset
    nwk_api.o(i.SMPL_Ioctl) refers to nwk_mgmt.o(i.broadcast_nwk_search_server) for broadcast_nwk_search_server
    nwk_api.o(i.SMPL_Link) refers to nwk_link.o(i.nwk_link) for nwk_link
    nwk_api.o(i.SMPL_LinkClose) refers to nwk_link.o(i.nwk_linkClose) for nwk_linkClose
    nwk_api.o(i.SMPL_LinkListen) refers to nwk_link.o(i.nwk_getLocalLinkID) for nwk_getLocalLinkID
    nwk_api.o(i.SMPL_Ping) refers to nwk_ping.o(i.nwk_ping) for nwk_ping
    nwk_api.o(i.SMPL_Receive) refers to nwk.o(i.nwk_getConnInfo) for nwk_getConnInfo
    nwk_api.o(i.SMPL_Receive) refers to nwk.o(i.nwk_checkConnInfo) for nwk_checkConnInfo
    nwk_api.o(i.SMPL_Receive) refers to nwk_frame.o(i.nwk_retrieveFrame) for nwk_retrieveFrame
    nwk_api.o(i.SMPL_ReceiveNoFree) refers to nwk.o(i.nwk_getConnInfo) for nwk_getConnInfo
    nwk_api.o(i.SMPL_ReceiveNoFree) refers to nwk.o(i.nwk_checkConnInfo) for nwk_checkConnInfo
    nwk_api.o(i.SMPL_ReceiveNoFree) refers to nwk_frame.o(i.nwk_retrieveFrameNoFree) for nwk_retrieveFrameNoFree
    nwk_api.o(i.SMPL_Reset) refers to nwk_api.o(i.SMPL_Init) for SMPL_Init
    nwk_api.o(i.SMPL_Reset) refers to nwk_api.o(.data) for sInit_done
    nwk_api.o(i.SMPL_Send) refers to nwk.o(i.nwk_getConnInfo) for nwk_getConnInfo
    nwk_api.o(i.SMPL_Send) refers to nwk.o(i.nwk_checkConnInfo) for nwk_checkConnInfo
    nwk_api.o(i.SMPL_Send) refers to nwk_frame.o(i.nwk_buildFrame) for nwk_buildFrame
    nwk_api.o(i.SMPL_Send) refers to nwk_join.o(i.nwk_isSandFClient) for nwk_isSandFClient
    nwk_api.o(i.SMPL_Send) refers to nwk_frame.o(i.nwk_sendFrame) for nwk_sendFrame
    nwk_frame.o(i.AddPacketInComeQ) refers to dtimer.o(i.tmrMsTimeGet) for tmrMsTimeGet
    nwk_frame.o(i.AddPacketInComeQ) refers to nwk_frame.o(.bss) for ComInPackeQ
    nwk_frame.o(i.FindSamePacket) refers to dtimer.o(i.tmrMsTimeGet) for tmrMsTimeGet
    nwk_frame.o(i.FindSamePacket) refers to memcmp.o(.text) for memcmp
    nwk_frame.o(i.FindSamePacket) refers to nwk_frame.o(.bss) for ComInPackeQ
    nwk_frame.o(i.MRFI_RxCompleteISR) refers to nwk_qmgmt.o(i.nwk_QfindSlot) for nwk_QfindSlot
    nwk_frame.o(i.MRFI_RxCompleteISR) refers to mrfi.o(i.MRFI_Receive) for MRFI_Receive
    nwk_frame.o(i.MRFI_RxCompleteISR) refers to nwk_frame.o(i.dispatchFrame) for dispatchFrame
    nwk_frame.o(i.MRFI_RxCompleteISR) refers to printf8.o(i.__0printf$8) for __2printf
    nwk_frame.o(i.dispatchFrame) refers to nwk_globals.o(i.nwk_getMyAddress) for nwk_getMyAddress
    nwk_frame.o(i.dispatchFrame) refers to memcmp.o(.text) for memcmp
    nwk_frame.o(i.dispatchFrame) refers to printf8.o(i.__0printf$8) for __2printf
    nwk_frame.o(i.dispatchFrame) refers to nwk.o(i.nwk_isConnectionValid) for nwk_isConnectionValid
    nwk_frame.o(i.dispatchFrame) refers to nwk_join.o(i.nwk_isSandFClient) for nwk_isSandFClient
    nwk_frame.o(i.dispatchFrame) refers to nwk_frame.o(i.isDupSandFFrame) for isDupSandFFrame
    nwk_frame.o(i.dispatchFrame) refers to mrfi.o(.data) for g_mrfi_rssi
    nwk_frame.o(i.dispatchFrame) refers to nwk_frame.o(.constdata) for func
    nwk_frame.o(i.dispatchFrame) refers to nwk_frame.o(.data) for sMyAddr
    nwk_frame.o(i.isDupSandFFrame) refers to nwk_qmgmt.o(i.nwk_getQ) for nwk_getQ
    nwk_frame.o(i.isDupSandFFrame) refers to memcmp.o(.text) for memcmp
    nwk_frame.o(i.nwk_SendEmptyPollRspFrame) refers to mrfi.o(i.MRFI_Transmit) for MRFI_Transmit
    nwk_frame.o(i.nwk_SendEmptyPollRspFrame) refers to nwk_frame.o(.data) for sMyRxType
    nwk_frame.o(i.nwk_buildFrame) refers to nwk_qmgmt.o(i.nwk_QfindSlot) for nwk_QfindSlot
    nwk_frame.o(i.nwk_buildFrame) refers to memcpy.o(.text) for __aeabi_memcpy
    nwk_frame.o(i.nwk_buildFrame) refers to nwk_frame.o(.data) for sTRACTID
    nwk_frame.o(i.nwk_frameInit) refers to nwk_globals.o(i.nwk_getMyAddress) for nwk_getMyAddress
    nwk_frame.o(i.nwk_frameInit) refers to nwk_frame.o(.data) for sMyRxType
    nwk_frame.o(i.nwk_frameInit) refers to nwk_frame.o(.bss) for ComInPackeQ
    nwk_frame.o(i.nwk_getMyRxType) refers to nwk_frame.o(.data) for sMyRxType
    nwk_frame.o(i.nwk_getSandFFrame) refers to nwk_qmgmt.o(i.nwk_QfindOldest) for nwk_QfindOldest
    nwk_frame.o(i.nwk_getSandFFrame) refers to nwk_qmgmt.o(i.nwk_getQ) for nwk_getQ
    nwk_frame.o(i.nwk_getSandFFrame) refers to memcmp.o(.text) for memcmp
    nwk_frame.o(i.nwk_replayFrame) refers to nwk_frame.o(i.replayFrameEx) for replayFrameEx
    nwk_frame.o(i.nwk_retrieveFrame) refers to nwk_qmgmt.o(i.nwk_QfindOldest) for nwk_QfindOldest
    nwk_frame.o(i.nwk_retrieveFrame) refers to nwk.o(i.nwk_getConnInfo) for nwk_getConnInfo
    nwk_frame.o(i.nwk_retrieveFrame) refers to memcpy.o(.text) for __aeabi_memcpy
    nwk_frame.o(i.nwk_retrieveFrame) refers to nwk_qmgmt.o(i.nwk_QadjustOrder) for nwk_QadjustOrder
    nwk_frame.o(i.nwk_retrieveFrameNoFree) refers to nwk_qmgmt.o(i.nwk_QfindOldest) for nwk_QfindOldest
    nwk_frame.o(i.nwk_retrieveFrameNoFree) refers to nwk.o(i.nwk_getConnInfo) for nwk_getConnInfo
    nwk_frame.o(i.nwk_retrieveFrameNoFree) refers to memcpy.o(.text) for __aeabi_memcpy
    nwk_frame.o(i.nwk_sendFrame) refers to mrfi.o(i.MRFI_Transmit) for MRFI_Transmit
    nwk_frame.o(i.nwk_sendFrame) refers to nwk_frame.o(.data) for sMyTxType
    nwk_frame.o(i.nwk_sendFrameEx) refers to mrfi.o(i.MRFI_Transmit) for MRFI_Transmit
    nwk_frame.o(i.nwk_sendFrameEx) refers to nwk_frame.o(.data) for sMyTxType
    nwk_frame.o(i.replayFrame) refers to mrfi.o(i.MRFI_DelayMs) for MRFI_DelayMs
    nwk_frame.o(i.replayFrame) refers to nwk_frame.o(i.nwk_sendFrame) for nwk_sendFrame
    nwk_frame.o(i.replayFrameEx) refers to mrfi.o(i.MRFI_DelayMs) for MRFI_DelayMs
    nwk_frame.o(i.replayFrameEx) refers to nwk_frame.o(i.nwk_sendFrameEx) for nwk_sendFrameEx
    nwk_frame.o(.constdata) refers to nwk_ping.o(i.nwk_processPing) for nwk_processPing
    nwk_frame.o(.constdata) refers to nwk_link.o(i.nwk_processLink) for nwk_processLink
    nwk_frame.o(.constdata) refers to nwk_join.o(i.nwk_processJoin) for nwk_processJoin
    nwk_frame.o(.constdata) refers to nwk_security.o(i.nwk_processSecurity) for nwk_processSecurity
    nwk_frame.o(.constdata) refers to nwk_freq.o(i.nwk_processFreq) for nwk_processFreq
    nwk_frame.o(.constdata) refers to nwk_mgmt.o(i.nwk_processMgmt) for nwk_processMgmt
    nwk_frame.o(.data) refers to nwk_frame.o(.conststring) for .conststring
    nwk_globals.o(i.nwk_disableRTSProcess) refers to nwk_globals.o(.data) for g_RTS_process_flag
    nwk_globals.o(i.nwk_enableRTSProcess) refers to nwk_globals.o(.data) for g_RTS_process_flag
    nwk_globals.o(i.nwk_getAPAddress) refers to memcmp.o(.text) for memcmp
    nwk_globals.o(i.nwk_getAPAddress) refers to nwk_globals.o(.data) for sAPAddress
    nwk_globals.o(i.nwk_getBCastAddress) refers to mrfi.o(.constdata) for mrfiBroadcastAddr
    nwk_globals.o(i.nwk_getMyAddress) refers to nwk_globals.o(.data) for sRAMAddressIsSet
    nwk_globals.o(i.nwk_getMyAddress) refers to nwk_globals.o(.constdata) for sMyROMAddress
    nwk_globals.o(i.nwk_getServerAddress) refers to nwk_globals.o(.data) for sServerAddress
    nwk_globals.o(i.nwk_globalsInit) refers to nwk_globals.o(.data) for sRAMAddressIsSet
    nwk_globals.o(i.nwk_globalsInit) refers to nwk_globals.o(.constdata) for sMyROMAddress
    nwk_globals.o(i.nwk_setAPAddress) refers to nwk_globals.o(.data) for sAPAddress
    nwk_globals.o(i.nwk_setMyAddress) refers to nwk_globals.o(.data) for sRAMAddressIsSet
    nwk_globals.o(i.nwk_setServerAddress) refers to nwk_globals.o(.data) for sServerAddress
    nwk_qmgmt.o(i.nwk_QInit) refers to memseta.o(.text) for __aeabi_memclr
    nwk_qmgmt.o(i.nwk_QInit) refers to nwk_qmgmt.o(.bss) for sInFrameQ
    nwk_qmgmt.o(i.nwk_QadjustOrder) refers to os_cpu_a.o(.text) for OS_CPU_SR_Save
    nwk_qmgmt.o(i.nwk_QadjustOrder) refers to nwk_qmgmt.o(.bss) for sInFrameQ
    nwk_qmgmt.o(i.nwk_QfindOldest) refers to nwk.o(i.nwk_getConnInfo) for nwk_getConnInfo
    nwk_qmgmt.o(i.nwk_QfindOldest) refers to os_cpu_a.o(.text) for OS_CPU_SR_Save
    nwk_qmgmt.o(i.nwk_QfindOldest) refers to memcmp.o(.text) for memcmp
    nwk_qmgmt.o(i.nwk_QfindOldest) refers to nwk_qmgmt.o(.bss) for sInFrameQ
    nwk_qmgmt.o(i.nwk_QfindSlot) refers to nwk_qmgmt.o(i.nwk_QadjustOrder) for nwk_QadjustOrder
    nwk_qmgmt.o(i.nwk_QfindSlot) refers to nwk_qmgmt.o(.bss) for sInFrameQ
    nwk_qmgmt.o(i.nwk_getQ) refers to nwk_qmgmt.o(.bss) for sInFrameQ
    nwk_ioctl.o(i.nwk_connectionControl) refers to nwk.o(i.nwk_getConnInfo) for nwk_getConnInfo
    nwk_ioctl.o(i.nwk_connectionControl) refers to nwk.o(i.nwk_freeConnection) for nwk_freeConnection
    nwk_ioctl.o(i.nwk_deviceAddress) refers to nwk_globals.o(i.nwk_getMyAddress) for nwk_getMyAddress
    nwk_ioctl.o(i.nwk_deviceAddress) refers to nwk_globals.o(i.nwk_setMyAddress) for nwk_setMyAddress
    nwk_ioctl.o(i.nwk_joinContext) refers to nwk_join.o(i.nwk_setJoinContext) for nwk_setJoinContext
    nwk_ioctl.o(i.nwk_radioControl) refers to mrfi.o(i.MRFI_RxIdle) for MRFI_RxIdle
    nwk_ioctl.o(i.nwk_radioControl) refers to mrfi.o(i.MRFI_Sleep) for MRFI_Sleep
    nwk_ioctl.o(i.nwk_radioControl) refers to mrfi.o(i.MRFI_WakeUp) for MRFI_WakeUp
    nwk_ioctl.o(i.nwk_radioControl) refers to mrfi.o(i.MRFI_RxOn) for MRFI_RxOn
    nwk_ioctl.o(i.nwk_radioControl) refers to nwk.o(i.nwk_getConnInfo) for nwk_getConnInfo
    nwk_ioctl.o(i.nwk_radioControl) refers to mrfi.o(i.MRFI_Rssi) for MRFI_Rssi
    nwk_ioctl.o(i.nwk_rawReceive) refers to nwk_frame.o(i.nwk_retrieveFrame) for nwk_retrieveFrame
    nwk_ioctl.o(i.nwk_rawSend) refers to nwk_frame.o(i.nwk_buildFrame) for nwk_buildFrame
    nwk_ioctl.o(i.nwk_rawSend) refers to nwk_frame.o(i.nwk_sendFrame) for nwk_sendFrame
    nwk_join.o(i.generateLinkToken) refers to nwk_join.o(.data) for sLinkToken
    nwk_join.o(i.nwk_isSandFClient) refers to memcmp.o(.text) for memcmp
    nwk_join.o(i.nwk_isSandFClient) refers to nwk_join.o(.bss) for sSandFClients
    nwk_join.o(i.nwk_join) refers to printf8.o(i.__0printf$8) for __2printf
    nwk_join.o(i.nwk_joinInit) refers to mrfi.o(i.MRFI_RandomByte) for MRFI_RandomByte
    nwk_join.o(i.nwk_joinInit) refers to nwk_join.o(i.generateLinkToken) for generateLinkToken
    nwk_join.o(i.nwk_joinInit) refers to nwk_link.o(i.nwk_setLinkToken) for nwk_setLinkToken
    nwk_join.o(i.nwk_joinInit) refers to nwk_join.o(.data) for sJoinToken
    nwk_join.o(i.nwk_processJoin) refers to nwk.o(i.nwk_isValidReply) for nwk_isValidReply
    nwk_join.o(i.nwk_processJoin) refers to nwk_join.o(i.smpl_send_join_reply) for smpl_send_join_reply
    nwk_join.o(i.nwk_processJoin) refers to nwk_join.o(.data) for sTid
    nwk_join.o(i.nwk_setJoinContext) refers to nwk_join.o(.data) for sJoinOK
    nwk_join.o(i.smpl_send_join_reply) refers to memcmp.o(.text) for memcmp
    nwk_join.o(i.smpl_send_join_reply) refers to printf8.o(i.__0printf$8) for __2printf
    nwk_join.o(i.smpl_send_join_reply) refers to mrfi.o(i.MRFI_CheckSameSystemID) for MRFI_CheckSameSystemID
    nwk_join.o(i.smpl_send_join_reply) refers to nwk_frame.o(i.nwk_buildFrame) for nwk_buildFrame
    nwk_join.o(i.smpl_send_join_reply) refers to nwk.o(i.nwk_saveJoinedDevice) for nwk_saveJoinedDevice
    nwk_join.o(i.smpl_send_join_reply) refers to nwk_frame.o(i.nwk_sendFrame) for nwk_sendFrame
    nwk_join.o(i.smpl_send_join_reply) refers to nwk_join.o(.data) for sJoinToken
    nwk_join.o(i.smpl_send_join_reply) refers to nwk_join.o(.bss) for sSandFClients
    nwk_link.o(i.nwk_getLocalLinkID) refers to os_cpu_a.o(.text) for OS_CPU_SR_Save
    nwk_link.o(i.nwk_getLocalLinkID) refers to nwk_link.o(.data) for sNumLinkers
    nwk_link.o(i.nwk_getLocalLinkID) refers to nwk_link.o(.bss) for sServiceLinkID
    nwk_link.o(i.nwk_link) refers to nwk.o(i.nwk_getNextConnection) for nwk_getNextConnection
    nwk_link.o(i.nwk_link) refers to nwk.o(i.nwk_allocateLocalRxPort) for nwk_allocateLocalRxPort
    nwk_link.o(i.nwk_link) refers to nwk.o(i.nwk_freeConnection) for nwk_freeConnection
    nwk_link.o(i.nwk_link) refers to nwk_globals.o(i.nwk_getServerAddress) for nwk_getServerAddress
    nwk_link.o(i.nwk_link) refers to nwk_frame.o(i.nwk_getMyRxType) for nwk_getMyRxType
    nwk_link.o(i.nwk_link) refers to nwk_api.o(i.SMPL_Ioctl) for SMPL_Ioctl
    nwk_link.o(i.nwk_link) refers to mrfi.o(i.MRFI_GetRadioState) for MRFI_GetRadioState
    nwk_link.o(i.nwk_link) refers to mrfi.o(i.MRFI_WakeUp) for MRFI_WakeUp
    nwk_link.o(i.nwk_link) refers to mrfi.o(i.MRFI_RxOn) for MRFI_RxOn
    nwk_link.o(i.nwk_link) refers to mrfi.o(i.MRFI_DelayMs) for MRFI_DelayMs
    nwk_link.o(i.nwk_link) refers to nwk_globals.o(i.nwk_setAPAddress) for nwk_setAPAddress
    nwk_link.o(i.nwk_link) refers to wers.o(i.WERSMsTimeSet) for WERSMsTimeSet
    nwk_link.o(i.nwk_link) refers to mrfi.o(i.MRFI_Sleep) for MRFI_Sleep
    nwk_link.o(i.nwk_link) refers to mrfi.o(i.MRFI_RxIdle) for MRFI_RxIdle
    nwk_link.o(i.nwk_link) refers to nwk_link.o(i.nwk_setListenContext) for nwk_setListenContext
    nwk_link.o(i.nwk_link) refers to nwk_link.o(.data) for sLinkToken
    nwk_link.o(i.nwk_link) refers to nwk_join.o(.data) for g_MyNodeType
    nwk_link.o(i.nwk_linkClose) refers to nwk.o(i.nwk_freeConnectionEx) for nwk_freeConnectionEx
    nwk_link.o(i.nwk_linkInit) refers to mrfi.o(i.MRFI_RandomByte) for MRFI_RandomByte
    nwk_link.o(i.nwk_linkInit) refers to memseta.o(.text) for __aeabi_memclr
    nwk_link.o(i.nwk_linkInit) refers to nwk_link.o(.data) for sDefaultLinkToken
    nwk_link.o(i.nwk_linkInit) refers to nwk_link.o(.bss) for sServiceLinkID
    nwk_link.o(i.nwk_processLink) refers to nwk.o(i.nwk_isValidReply) for nwk_isValidReply
    nwk_link.o(i.nwk_processLink) refers to nwk_link.o(i.smpl_send_link_reply) for smpl_send_link_reply
    nwk_link.o(i.nwk_processLink) refers to nwk_link.o(.data) for sTid
    nwk_link.o(i.nwk_setLinkToken) refers to nwk_link.o(.data) for sLinkToken
    nwk_link.o(i.nwk_setListenContext) refers to nwk_link.o(.data) for sListenActive
    nwk_link.o(i.smpl_send_link_reply) refers to memcmp.o(.text) for memcmp
    nwk_link.o(i.smpl_send_link_reply) refers to mrfi.o(i.MRFI_CheckSameSystemID) for MRFI_CheckSameSystemID
    nwk_link.o(i.smpl_send_link_reply) refers to printf8.o(i.__0printf$8) for __2printf
    nwk_link.o(i.smpl_send_link_reply) refers to nwk.o(i.nwk_isLinkDuplicate) for nwk_isLinkDuplicate
    nwk_link.o(i.smpl_send_link_reply) refers to nwk_frame.o(i.nwk_getMyRxType) for nwk_getMyRxType
    nwk_link.o(i.smpl_send_link_reply) refers to wers.o(i.WERSMsTimeGet) for WERSMsTimeGet
    nwk_link.o(i.smpl_send_link_reply) refers to nwk_frame.o(i.nwk_buildFrame) for nwk_buildFrame
    nwk_link.o(i.smpl_send_link_reply) refers to nwk_frame.o(i.nwk_sendFrame) for nwk_sendFrame
    nwk_link.o(i.smpl_send_link_reply) refers to nwk.o(i.nwk_findAlreadyJoined) for nwk_findAlreadyJoined
    nwk_link.o(i.smpl_send_link_reply) refers to nwk.o(i.nwk_getNextConnection) for nwk_getNextConnection
    nwk_link.o(i.smpl_send_link_reply) refers to nwk.o(i.nwk_allocateLocalRxPort) for nwk_allocateLocalRxPort
    nwk_link.o(i.smpl_send_link_reply) refers to nwk.o(i.nwk_freeConnection) for nwk_freeConnection
    nwk_link.o(i.smpl_send_link_reply) refers to nwk_link.o(.data) for sLinkToken
    nwk_link.o(i.smpl_send_link_reply) refers to nwk_join.o(.data) for g_MyNodeType
    nwk_link.o(i.smpl_send_link_reply) refers to nwk_link.o(.bss) for sServiceLinkID
    nwk_mgmt.o(i.broadcast_nwk_reset) refers to nwk_globals.o(i.nwk_getBCastAddress) for nwk_getBCastAddress
    nwk_mgmt.o(i.broadcast_nwk_reset) refers to nwk_api.o(i.SMPL_Ioctl) for SMPL_Ioctl
    nwk_mgmt.o(i.broadcast_nwk_reset) refers to nwk_mgmt.o(.data) for sTid
    nwk_mgmt.o(i.broadcast_nwk_reset) refers to nwk_join.o(.data) for g_MyNodeType
    nwk_mgmt.o(i.broadcast_nwk_search_server) refers to nwk_globals.o(i.nwk_getBCastAddress) for nwk_getBCastAddress
    nwk_mgmt.o(i.broadcast_nwk_search_server) refers to nwk_api.o(i.SMPL_Ioctl) for SMPL_Ioctl
    nwk_mgmt.o(i.broadcast_nwk_search_server) refers to nwk_mgmt.o(.data) for sTid
    nwk_mgmt.o(i.broadcast_nwk_search_server) refers to nwk_join.o(.data) for g_MyNodeType
    nwk_mgmt.o(i.nwk_CTS_process) refers to nwk_globals.o(i.nwk_getMyAddress) for nwk_getMyAddress
    nwk_mgmt.o(i.nwk_CTS_process) refers to memcmp.o(.text) for memcmp
    nwk_mgmt.o(i.nwk_CTS_process) refers to nwk_globals.o(i.nwk_getBCastAddress) for nwk_getBCastAddress
    nwk_mgmt.o(i.nwk_CTS_process) refers to nwk_api.o(i.SMPL_Ioctl) for SMPL_Ioctl
    nwk_mgmt.o(i.nwk_CTS_process) refers to wers.o(.constdata) for callBackfunc
    nwk_mgmt.o(i.nwk_DS_process) refers to wers.o(.constdata) for callBackfunc
    nwk_mgmt.o(i.nwk_Data_Ack_process) refers to nwk_globals.o(i.nwk_getMyAddress) for nwk_getMyAddress
    nwk_mgmt.o(i.nwk_Data_Ack_process) refers to memcmp.o(.text) for memcmp
    nwk_mgmt.o(i.nwk_Data_Ack_process) refers to wers.o(.constdata) for callBackfunc
    nwk_mgmt.o(i.nwk_RTS_process) refers to nwk_globals.o(i.nwk_getMyAddress) for nwk_getMyAddress
    nwk_mgmt.o(i.nwk_RTS_process) refers to memcmp.o(.text) for memcmp
    nwk_mgmt.o(i.nwk_RTS_process) refers to nwk.o(i.nwk_isConnectionValid) for nwk_isConnectionValid
    nwk_mgmt.o(i.nwk_RTS_process) refers to wers.o(.constdata) for callBackfunc
    nwk_mgmt.o(i.nwk_mgmtInit) refers to mrfi.o(i.MRFI_RandomByte) for MRFI_RandomByte
    nwk_mgmt.o(i.nwk_mgmtInit) refers to nwk_mgmt.o(.data) for sTid
    nwk_mgmt.o(i.nwk_processMgmt) refers to nwk.o(i.nwk_isValidReply) for nwk_isValidReply
    nwk_mgmt.o(i.nwk_processMgmt) refers to printf8.o(i.__0printf$8) for __2printf
    nwk_mgmt.o(i.nwk_processMgmt) refers to nwk_globals.o(i.nwk_getMyAddress) for nwk_getMyAddress
    nwk_mgmt.o(i.nwk_processMgmt) refers to memcmp.o(.text) for memcmp
    nwk_mgmt.o(i.nwk_processMgmt) refers to nwk_globals.o(i.nwk_getBCastAddress) for nwk_getBCastAddress
    nwk_mgmt.o(i.nwk_processMgmt) refers to nwk_mgmt.o(i.smpl_send_mgmt_reply) for smpl_send_mgmt_reply
    nwk_mgmt.o(i.nwk_processMgmt) refers to nwk_mgmt.o(.data) for sTid
    nwk_mgmt.o(i.resend_request_process) refers to nwk.o(i.nwk_isConnectionValid) for nwk_isConnectionValid
    nwk_mgmt.o(i.resend_request_process) refers to wers.o(.constdata) for callBackfunc
    nwk_mgmt.o(i.send_poll_reply) refers to nwk_join.o(i.nwk_isSandFClient) for nwk_isSandFClient
    nwk_mgmt.o(i.send_poll_reply) refers to nwk_frame.o(i.nwk_getSandFFrame) for nwk_getSandFFrame
    nwk_mgmt.o(i.send_poll_reply) refers to nwk_frame.o(i.nwk_sendFrame) for nwk_sendFrame
    nwk_mgmt.o(i.send_poll_reply) refers to nwk_frame.o(i.nwk_SendEmptyPollRspFrame) for nwk_SendEmptyPollRspFrame
    nwk_mgmt.o(i.send_search_server_reply) refers to nwk_frame.o(i.nwk_buildFrame) for nwk_buildFrame
    nwk_mgmt.o(i.send_search_server_reply) refers to nwk_frame.o(i.nwk_sendFrame) for nwk_sendFrame
    nwk_mgmt.o(i.send_search_server_reply) refers to wers.o(.data) for g_WERSSystemId
    nwk_mgmt.o(i.send_search_server_reply) refers to nwk_join.o(.data) for g_MyNodeType
    nwk_mgmt.o(i.send_search_server_reply) refers to nwk_mgmt.o(.data) for sTid
    nwk_mgmt.o(i.smpl_send_mgmt_reply) refers to nwk_mgmt.o(i.send_poll_reply) for send_poll_reply
    nwk_mgmt.o(i.smpl_send_mgmt_reply) refers to printf8.o(i.__0printf$8) for __2printf
    nwk_mgmt.o(i.smpl_send_mgmt_reply) refers to nwk_mgmt.o(i.send_search_server_reply) for send_search_server_reply
    nwk_mgmt.o(i.smpl_send_mgmt_reply) refers to nwk_mgmt.o(i.resend_request_process) for resend_request_process
    nwk_mgmt.o(i.smpl_send_mgmt_reply) refers to nwk_mgmt.o(i.nwk_RTS_process) for nwk_RTS_process
    nwk_mgmt.o(i.smpl_send_mgmt_reply) refers to nwk_mgmt.o(i.nwk_CTS_process) for nwk_CTS_process
    nwk_mgmt.o(i.smpl_send_mgmt_reply) refers to nwk_mgmt.o(i.nwk_DS_process) for nwk_DS_process
    nwk_mgmt.o(i.smpl_send_mgmt_reply) refers to nwk_mgmt.o(i.nwk_Data_Ack_process) for nwk_Data_Ack_process
    nwk_mgmt.o(i.smpl_send_mgmt_reply) refers to nwk_join.o(.data) for g_MyNodeType
    nwk_mgmt.o(i.smpl_send_mgmt_reply) refers to nwk.o(.data) for gs_pReset
    nwk_ping.o(i.nwk_ping) refers to nwk.o(i.nwk_getConnInfo) for nwk_getConnInfo
    nwk_ping.o(i.nwk_ping) refers to mrfi.o(i.MRFI_GetRadioState) for MRFI_GetRadioState
    nwk_ping.o(i.nwk_ping) refers to nwk_api.o(i.SMPL_Ioctl) for SMPL_Ioctl
    nwk_ping.o(i.nwk_ping) refers to mrfi.o(i.MRFI_WakeUp) for MRFI_WakeUp
    nwk_ping.o(i.nwk_ping) refers to mrfi.o(i.MRFI_RxOn) for MRFI_RxOn
    nwk_ping.o(i.nwk_ping) refers to mrfi.o(i.MRFI_DelayMs) for MRFI_DelayMs
    nwk_ping.o(i.nwk_ping) refers to mrfi.o(i.MRFI_Sleep) for MRFI_Sleep
    nwk_ping.o(i.nwk_ping) refers to mrfi.o(i.MRFI_RxIdle) for MRFI_RxIdle
    nwk_ping.o(i.nwk_ping) refers to nwk_ping.o(.data) for sTid
    nwk_ping.o(i.nwk_pingInit) refers to mrfi.o(i.MRFI_RandomByte) for MRFI_RandomByte
    nwk_ping.o(i.nwk_pingInit) refers to nwk_ping.o(.data) for sTid
    nwk_ping.o(i.nwk_processPing) refers to nwk.o(i.nwk_isValidReply) for nwk_isValidReply
    nwk_ping.o(i.nwk_processPing) refers to nwk.o(i.nwk_isLinked) for nwk_isLinked
    nwk_ping.o(i.nwk_processPing) refers to nwk_ping.o(i.smpl_send_ping_reply) for smpl_send_ping_reply
    nwk_ping.o(i.nwk_processPing) refers to printf8.o(i.__0printf$8) for __2printf
    nwk_ping.o(i.nwk_processPing) refers to nwk_ping.o(.data) for sTid
    nwk_ping.o(i.smpl_send_ping_reply) refers to nwk_frame.o(i.nwk_buildFrame) for nwk_buildFrame
    nwk_ping.o(i.smpl_send_ping_reply) refers to nwk_frame.o(i.nwk_sendFrame) for nwk_sendFrame
    wers.o(i.AddNewTransactionToQue) refers to os_cpu_a.o(.text) for OS_CPU_SR_Save
    wers.o(i.AddNewTransactionToQue) refers to dtimer.o(i.tmrMsTimeGet) for tmrMsTimeGet
    wers.o(i.AddNewTransactionToQue) refers to printf8.o(i.__0printf$8) for __2printf
    wers.o(i.BackOffTimeOut) refers to os_cpu_a.o(.text) for OS_CPU_SR_Save
    wers.o(i.BackOffTimeOut) refers to dtimer.o(i.tmrMsTimeGet) for tmrMsTimeGet
    wers.o(i.BackOffTimeOut) refers to dtimer.o(i.mDelay) for mDelay
    wers.o(i.BackOffTimeOut) refers to wers.o(.data) for g_BackOffBegintime
    wers.o(i.BackOffTimeOutEx) refers to dtimer.o(i.tmrMsTimeGet) for tmrMsTimeGet
    wers.o(i.BackOffTimeOutEx) refers to os_cpu_a.o(.text) for OS_CPU_SR_Save
    wers.o(i.BackOffTimeOutEx) refers to dtimer.o(i.mDelay) for mDelay
    wers.o(i.BackOffTimeOutEx) refers to wers.o(.data) for g_BackOffBegintime
    wers.o(i.CC1100_RF_Test) refers to nwk_api.o(i.SMPL_Init) for SMPL_Init
    wers.o(i.CC1100_RF_Test) refers to nwk_api.o(i.SMPL_LinkListen) for SMPL_LinkListen
    wers.o(i.CC1100_RF_Test) refers to os_cpu_a.o(.text) for OS_CPU_SR_Save
    wers.o(i.CC1100_RF_Test) refers to nwk_api.o(i.SMPL_Receive) for SMPL_Receive
    wers.o(i.CC1100_RF_Test) refers to wers.o(i.sCB) for sCB
    wers.o(i.CC1100_RF_Test) refers to wers.o(.data) for sJoinSem
    wers.o(i.CC1100_RF_Test) refers to wers.o(.bss) for sLID
    wers.o(i.CheckTimeOut) refers to dtimer.o(i.tmrMsTimeGet) for tmrMsTimeGet
    wers.o(i.CheckTimeOut) refers to dtimer.o(i.mDelay) for mDelay
    wers.o(i.CheckTimeOut) refers to wers.o(.data) for sBegintime
    wers.o(i.CheckTimeOutEx) refers to dtimer.o(i.tmrMsTimeGet) for tmrMsTimeGet
    wers.o(i.CheckTimeOutEx) refers to dtimer.o(i.mDelay) for mDelay
    wers.o(i.CheckTimeOutEx) refers to wers.o(.data) for sBegintime
    wers.o(i.F_485_BackOffTimeOut) refers to os_cpu_a.o(.text) for OS_CPU_SR_Save
    wers.o(i.F_485_BackOffTimeOut) refers to dtimer.o(i.tmrMsTimeGet) for tmrMsTimeGet
    wers.o(i.F_485_BackOffTimeOut) refers to dtimer.o(i.mDelay) for mDelay
    wers.o(i.F_485_BackOffTimeOut) refers to wers.o(.data) for g_485BackOffBegintime
    wers.o(i.GetPlayload) refers to rf_mem.o(i.rf_mem_malloc) for rf_mem_malloc
    wers.o(i.GetPlayload) refers to memcpy.o(.text) for __aeabi_memcpy
    wers.o(i.GetPlayload) refers to nwk_api.o(i.SMPL_Receive) for SMPL_Receive
    wers.o(i.GetPlayload) refers to wers.o(i.CheckTimeOut) for CheckTimeOut
    wers.o(i.GetPlayload) refers to rf_mem.o(i.rf_mem_free) for rf_mem_free
    wers.o(i.InitTransactionGUID) refers to memseta.o(.text) for __aeabi_memclr
    wers.o(i.MILD_max) refers to wers.o(.data) for sBackOffCounter
    wers.o(i.MILD_min) refers to wers.o(.data) for sBackOffCounter
    wers.o(i.PC485SemPend) refers to dtimer.o(i.mDelay) for mDelay
    wers.o(i.PC485SemPend) refers to wers.o(.data) for g_485NotifyCode
    wers.o(i.PendTransactionToQue) refers to os_cpu_a.o(.text) for OS_CPU_SR_Save
    wers.o(i.PendTransactionToQue) refers to dtimer.o(i.tmrMsTimeGet) for tmrMsTimeGet
    wers.o(i.RFMacSemPend) refers to dtimer.o(i.mDelay) for mDelay
    wers.o(i.RFMacSemPend) refers to wers.o(.data) for g_NotifyCode
    wers.o(i.RF_SendRTS) refers to nwk.o(i.nwk_getConnInfo) for nwk_getConnInfo
    wers.o(i.RF_SendRTS) refers to nwk_globals.o(i.nwk_getMyAddress) for nwk_getMyAddress
    wers.o(i.RF_SendRTS) refers to nwk_globals.o(i.nwk_getBCastAddress) for nwk_getBCastAddress
    wers.o(i.RF_SendRTS) refers to nwk_api.o(i.SMPL_Ioctl) for SMPL_Ioctl
    wers.o(i.RF_SendRTS) refers to mrfi.o(i.MRFI_GetRadioState) for MRFI_GetRadioState
    wers.o(i.RF_SendRTS) refers to mrfi.o(i.MRFI_WakeUp) for MRFI_WakeUp
    wers.o(i.RF_SendRTS) refers to mrfi.o(i.MRFI_RxOn) for MRFI_RxOn
    wers.o(i.RestNotifyCode) refers to os_cpu_a.o(.text) for OS_CPU_SR_Save
    wers.o(i.RestNotifyCode) refers to wers.o(.data) for g_NotifyCode
    wers.o(i.SMPL_SendEx) refers to nwk_api.o(i.SMPL_Send) for SMPL_Send
    wers.o(i.SMPL_SendEx) refers to wers.o(i.WERS_RandomDelay) for WERS_RandomDelay
    wers.o(i.SMPL_SendEx) refers to wers.o(.data) for g_ApTaskCondition
    wers.o(i.SearchTransactionGUID) refers to os_cpu_a.o(.text) for OS_CPU_SR_Save
    wers.o(i.SendDataToPC) refers to stm32f10x_usart.o(i.USART_SendData) for USART_SendData
    wers.o(i.SendDataToPC) refers to stm32f10x_usart.o(i.USART_GetFlagStatus) for USART_GetFlagStatus
    wers.o(i.WERS485BridgeTask) refers to os_sem.o(i.OSSemPend) for OSSemPend
    wers.o(i.WERS485BridgeTask) refers to stm32_eval.o(i.STM_EVAL_LEDSet) for STM_EVAL_LEDSet
    wers.o(i.WERS485BridgeTask) refers to wers.o(i.WERS_GetOldestTranscation) for WERS_GetOldestTranscation
    wers.o(i.WERS485BridgeTask) refers to wers.o(i.WERS485Send) for WERS485Send
    wers.o(i.WERS485BridgeTask) refers to os_cpu_a.o(.text) for OS_CPU_SR_Save
    wers.o(i.WERS485BridgeTask) refers to wers.o(i.WERS_SaveGUIDToMap) for WERS_SaveGUIDToMap
    wers.o(i.WERS485BridgeTask) refers to os_sem.o(i.OSSemPost) for OSSemPost
    wers.o(i.WERS485BridgeTask) refers to wers.o(i.WERS_RemoveTranscationFromQ) for WERS_RemoveTranscationFromQ
    wers.o(i.WERS485BridgeTask) refers to wers.o(i.WERS_RemoveTranscationFromQByGUID) for WERS_RemoveTranscationFromQByGUID
    wers.o(i.WERS485BridgeTask) refers to wers.o(.data) for g_pSem485Bridge
    wers.o(i.WERS485Poll) refers to os_sem.o(i.OSSemPend) for OSSemPend
    wers.o(i.WERS485Poll) refers to wers.o(i.WERS_RemoveTimeOutGUIDFromMap) for WERS_RemoveTimeOutGUIDFromMap
    wers.o(i.WERS485Poll) refers to os_sem.o(i.OSSemAccept) for OSSemAccept
    wers.o(i.WERS485Poll) refers to wers.o(i.WERS485SendResponsePoll) for WERS485SendResponsePoll
    wers.o(i.WERS485Poll) refers to os_sem.o(i.OSSemPost) for OSSemPost
    wers.o(i.WERS485Poll) refers to wers.o(.data) for g_p485PollSem
    wers.o(i.WERS485RecevieTask) refers to os_q.o(i.OSQPend) for OSQPend
    wers.o(i.WERS485RecevieTask) refers to wers.o(i.WERSMsTimeGet) for WERSMsTimeGet
    wers.o(i.WERS485RecevieTask) refers to wers.o(i.WERSPCDataProcess) for WERSPCDataProcess
    wers.o(i.WERS485RecevieTask) refers to rf_mem.o(i.rf_mem_free) for rf_mem_free
    wers.o(i.WERS485RecevieTask) refers to wers.o(.data) for g_485InQue
    wers.o(i.WERS485Send) refers to rf_mem.o(i.rf_mem_malloc) for rf_mem_malloc
    wers.o(i.WERS485Send) refers to memcpy.o(.text) for __aeabi_memcpy
    wers.o(i.WERS485Send) refers to wers.o(i.cal_crc) for cal_crc
    wers.o(i.WERS485Send) refers to wers.o(i.SendDataToPC) for SendDataToPC
    wers.o(i.WERS485Send) refers to rf_mem.o(i.rf_mem_free) for rf_mem_free
    wers.o(i.WERS485SendDataAck) refers to wers.o(i.cal_crc) for cal_crc
    wers.o(i.WERS485SendDataAck) refers to wers.o(i.cal_crc8) for cal_crc8
    wers.o(i.WERS485SendDataAck) refers to wers.o(i.SendDataToPC) for SendDataToPC
    wers.o(i.WERS485SendResponsePoll) refers to wers.o(i.SendDataToPC) for SendDataToPC
    wers.o(i.WERS485SendTask) refers to os_q.o(i.OSQPend) for OSQPend
    wers.o(i.WERS485SendTask) refers to dtimer.o(i.tmrDateTimeGet) for tmrDateTimeGet
    wers.o(i.WERS485SendTask) refers to dtimer.o(i.tmrMsTimeGet) for tmrMsTimeGet
    wers.o(i.WERS485SendTask) refers to wers.o(i.F_485_BackOffTimeOut) for F_485_BackOffTimeOut
    wers.o(i.WERS485SendTask) refers to os_cpu_a.o(.text) for OS_CPU_SR_Save
    wers.o(i.WERS485SendTask) refers to wers.o(i.WERS485Send) for WERS485Send
    wers.o(i.WERS485SendTask) refers to wers.o(i.PC485SemPend) for PC485SemPend
    wers.o(i.WERS485SendTask) refers to wers.o(i.WERS_RandomDelay) for WERS_RandomDelay
    wers.o(i.WERS485SendTask) refers to os_task.o(i.OSTaskSuspend) for OSTaskSuspend
    wers.o(i.WERS485SendTask) refers to rf_mem.o(i.rf_mem_free) for rf_mem_free
    wers.o(i.WERS485SendTask) refers to wers.o(.data) for g_485OutQue
    wers.o(i.WERSAPCmd) refers to wers.o(i.WERSGetDeviceAddress) for WERSGetDeviceAddress
    wers.o(i.WERSAPCmd) refers to wers.o(i.WERSWriteDevice) for WERSWriteDevice
    wers.o(i.WERSAPCmd) refers to main.o(.emb_text) for SystemReset
    wers.o(i.WERSAPCmd) refers to nwk_globals.o(i.nwk_getBCastAddress) for nwk_getBCastAddress
    wers.o(i.WERSAPCmd) refers to dtimer.o(i.mDelay) for mDelay
    wers.o(i.WERSAPCmd) refers to nwk_api.o(i.SMPL_Ioctl) for SMPL_Ioctl
    wers.o(i.WERSAPCmd) refers to memseta.o(.text) for __aeabi_memclr4
    wers.o(i.WERSAPCmd) refers to nwk.o(i.nwk_getConnInfo) for nwk_getConnInfo
    wers.o(i.WERSAPCmd) refers to wers.o(i.SendDataToPC) for SendDataToPC
    wers.o(i.WERSAPCmd) refers to wers.o(i.WERS485Send) for WERS485Send
    wers.o(i.WERSAPCmd) refers to wers.o(.data) for g_WERSSystemId
    wers.o(i.WERSAPCmd) refers to nwk_join.o(.data) for g_MyNodeType
    wers.o(i.WERSAPCmd) refers to mrfi.o(.data) for g_mrfi_rssi
    wers.o(i.WERSAPCmd) refers to wers.o(.bss) for sLID
    wers.o(i.WERSAPRestartNotifyPC) refers to rf_mem.o(i.rf_mem_malloc) for rf_mem_malloc
    wers.o(i.WERSAPRestartNotifyPC) refers to wers.o(i.WERSMsTimeGet) for WERSMsTimeGet
    wers.o(i.WERSAPRestartNotifyPC) refers to wers.o(i.WERSGetDeviceAddress) for WERSGetDeviceAddress
    wers.o(i.WERSAPRestartNotifyPC) refers to wers.o(i.WERS485Send) for WERS485Send
    wers.o(i.WERSAPRestartNotifyPC) refers to wers.o(.data) for g_WERSSystemId
    wers.o(i.WERSBoadcast) refers to nwk_globals.o(i.nwk_getBCastAddress) for nwk_getBCastAddress
    wers.o(i.WERSBoadcast) refers to dtimer.o(i.mDelay) for mDelay
    wers.o(i.WERSBoadcast) refers to nwk_api.o(i.SMPL_Ioctl) for SMPL_Ioctl
    wers.o(i.WERSExTask) refers to os_q.o(i.OSQCreate) for OSQCreate
    wers.o(i.WERSExTask) refers to os_task.o(i.OSTaskCreate) for OSTaskCreate
    wers.o(i.WERSExTask) refers to uart.o(i.init_485_uart) for init_485_uart
    wers.o(i.WERSExTask) refers to wers.o(i.WERSReadDevice) for WERSReadDevice
    wers.o(i.WERSExTask) refers to printf8.o(i.__0printf$8) for __2printf
    wers.o(i.WERSExTask) refers to wers.o(i.WERSSetDeviceAddress) for WERSSetDeviceAddress
    wers.o(i.WERSExTask) refers to stm32_eval.o(i.STM_EVAL_LEDSet) for STM_EVAL_LEDSet
    wers.o(i.WERSExTask) refers to nwk.o(i.nwk_ResetSet) for nwk_ResetSet
    wers.o(i.WERSExTask) refers to rf_wd.o(i.WatchDogInit) for WatchDogInit
    wers.o(i.WERSExTask) refers to nwk_api.o(i.SMPL_Init) for SMPL_Init
    wers.o(i.WERSExTask) refers to nwk_api.o(i.SMPL_Ioctl) for SMPL_Ioctl
    wers.o(i.WERSExTask) refers to wers.o(i.WERS_RandomDelay) for WERS_RandomDelay
    wers.o(i.WERSExTask) refers to os_q.o(i.OSQPost) for OSQPost
    wers.o(i.WERSExTask) refers to os_q.o(i.OSQAccept) for OSQAccept
    wers.o(i.WERSExTask) refers to wers.o(i.BackOffTimeOut) for BackOffTimeOut
    wers.o(i.WERSExTask) refers to nwk_api.o(i.SMPL_Ping) for SMPL_Ping
    wers.o(i.WERSExTask) refers to os_cpu_a.o(.text) for OS_CPU_SR_Save
    wers.o(i.WERSExTask) refers to memseta.o(.text) for __aeabi_memclr4
    wers.o(i.WERSExTask) refers to nwk_api.o(i.SMPL_Reset) for SMPL_Reset
    wers.o(i.WERSExTask) refers to dtimer.o(i.DeleteTimer) for DeleteTimer
    wers.o(i.WERSExTask) refers to nwk_api.o(i.SMPL_LinkClose) for SMPL_LinkClose
    wers.o(i.WERSExTask) refers to dtimer.o(i.CreateTimerEx) for CreateTimerEx
    wers.o(i.WERSExTask) refers to dtimer.o(i.StartTimer) for StartTimer
    wers.o(i.WERSExTask) refers to os_time.o(i.OSTimeDly) for OSTimeDly
    wers.o(i.WERSExTask) refers to nwk_api.o(i.SMPL_Link) for SMPL_Link
    wers.o(i.WERSExTask) refers to wers.o(i.WERSExWorking) for WERSExWorking
    wers.o(i.WERSExTask) refers to wers.o(.bss) for g_485InQueBuf
    wers.o(i.WERSExTask) refers to wers.o(.data) for g_485InQue
    wers.o(i.WERSExTask) refers to wers.o(i.WERSRFReceiverTask) for WERSRFReceiverTask
    wers.o(i.WERSExTask) refers to wers.o(i.WERSRFBridgeTask) for WERSRFBridgeTask
    wers.o(i.WERSExTask) refers to wers.o(i.WERS485RecevieTask) for WERS485RecevieTask
    wers.o(i.WERSExTask) refers to nwk_join.o(.data) for g_MyNodeType
    wers.o(i.WERSExTask) refers to wers.o(.constdata) for .constdata
    wers.o(i.WERSExTask) refers to wers.o(i.sReset) for sReset
    wers.o(i.WERSExTask) refers to wers.o(i.sCB) for sCB
    wers.o(i.WERSExTask) refers to wers.o(i.WERSTimerISR) for WERSTimerISR
    wers.o(i.WERSExWorking) refers to nwk_api.o(i.SMPL_LinkListen) for SMPL_LinkListen
    wers.o(i.WERSExWorking) refers to os_cpu_a.o(.text) for OS_CPU_SR_Save
    wers.o(i.WERSExWorking) refers to wers.o(.data) for sJoinSem
    wers.o(i.WERSExWorking) refers to wers.o(.bss) for sLID
    wers.o(i.WERSGenerate_485_GUID) refers to wers.o(i.WERSMsTimeGet) for WERSMsTimeGet
    wers.o(i.WERSGenerate_RF_GUID) refers to wers.o(i.WERSMsTimeGet) for WERSMsTimeGet
    wers.o(i.WERSGetACKResponse) refers to nwk_api.o(i.SMPL_Receive) for SMPL_Receive
    wers.o(i.WERSGetACKResponse) refers to wers.o(i.CheckTimeOut) for CheckTimeOut
    wers.o(i.WERSGetACKResponse) refers to wers.o(.data) for sBegintime
    wers.o(i.WERSGetDataFromPC) refers to wers.o(i.WERS_ReceiveFromPC) for WERS_ReceiveFromPC
    wers.o(i.WERSGetDataFromPC) refers to rf_mem.o(i.rf_mem_free) for rf_mem_free
    wers.o(i.WERSGetDataFromPC) refers to wers.o(i.WERS_InsertPacketToQEx) for WERS_InsertPacketToQEx
    wers.o(i.WERSGetDataFromPC) refers to rf_mem.o(i.rf_mem_malloc) for rf_mem_malloc
    wers.o(i.WERSGetDataFromPC) refers to memcpy.o(.text) for __aeabi_memcpy
    wers.o(i.WERSGetDataFromPC) refers to wers.o(i.CheckTimeOut) for CheckTimeOut
    wers.o(i.WERSGetDataFromPC) refers to wers.o(.data) for sBegintime
    wers.o(i.WERSGetDeviceAddress) refers to nwk_api.o(i.SMPL_Ioctl) for SMPL_Ioctl
    wers.o(i.WERSGetResponseForPC) refers to nwk_api.o(i.SMPL_Receive) for SMPL_Receive
    wers.o(i.WERSGetResponseForPC) refers to wers.o(i.CheckTimeOut) for CheckTimeOut
    wers.o(i.WERSGetResponseForPC) refers to rf_mem.o(i.rf_mem_malloc) for rf_mem_malloc
    wers.o(i.WERSGetResponseForPC) refers to memcpy.o(.text) for __aeabi_memcpy
    wers.o(i.WERSGetResponseForPC) refers to rf_mem.o(i.rf_mem_free) for rf_mem_free
    wers.o(i.WERSGetResponseForPC) refers to wers.o(.data) for sBegintime
    wers.o(i.WERSGetSystemID) refers to wers.o(.data) for g_WERSSystemId
    wers.o(i.WERSMsTimeGet) refers to dtimer.o(i.tmrMsTimeGet) for tmrMsTimeGet
    wers.o(i.WERSMsTimeGet) refers to wers.o(.data) for timemsStart
    wers.o(i.WERSMsTimeSet) refers to dtimer.o(i.tmrMsTimeGet) for tmrMsTimeGet
    wers.o(i.WERSMsTimeSet) refers to wers.o(.data) for datemsStart
    wers.o(i.WERSPCDataProcess) refers to wers.o(i.WERSAPCmd) for WERSAPCmd
    wers.o(i.WERSPCDataProcess) refers to mrfi.o(i.MRFI_GetRadioState) for MRFI_GetRadioState
    wers.o(i.WERSPCDataProcess) refers to nwk.o(i.nwk_getConnInfo) for nwk_getConnInfo
    wers.o(i.WERSPCDataProcess) refers to nwk_api.o(i.SMPL_Ioctl) for SMPL_Ioctl
    wers.o(i.WERSPCDataProcess) refers to mrfi.o(i.MRFI_Sleep) for MRFI_Sleep
    wers.o(i.WERSPCDataProcess) refers to mrfi.o(i.MRFI_RxIdle) for MRFI_RxIdle
    wers.o(i.WERSPCDataProcess) refers to wers.o(i.WERS_RandomDelay) for WERS_RandomDelay
    wers.o(i.WERSPCDataProcess) refers to wers.o(i.WERSGenerate_RF_GUID) for WERSGenerate_RF_GUID
    wers.o(i.WERSPCDataProcess) refers to wers.o(i.WERS_Transmit) for WERS_Transmit
    wers.o(i.WERSPCPridge) refers to dtimer.o(i.tmrMsTimeGet) for tmrMsTimeGet
    wers.o(i.WERSPCPridge) refers to wers.o(i.WERSAPCmd) for WERSAPCmd
    wers.o(i.WERSPCPridge) refers to wers.o(.data) for ls_time
    wers.o(i.WERSPCPridge) refers to wers.o(.bss) for ls_data
    wers.o(i.WERSRFBridgeTask) refers to os_q.o(i.OSQPend) for OSQPend
    wers.o(i.WERSRFBridgeTask) refers to stm32_eval.o(i.STM_EVAL_LEDSet) for STM_EVAL_LEDSet
    wers.o(i.WERSRFBridgeTask) refers to wers.o(i.WERSMsTimeGet) for WERSMsTimeGet
    wers.o(i.WERSRFBridgeTask) refers to wers.o(i.WERS_Transmit) for WERS_Transmit
    wers.o(i.WERSRFBridgeTask) refers to rf_mem.o(i.rf_mem_free) for rf_mem_free
    wers.o(i.WERSRFBridgeTask) refers to wers.o(.data) for g_pTranscationQue
    wers.o(i.WERSRFBridgeTask) refers to nwk_join.o(.data) for g_MyNodeType
    wers.o(i.WERSRFReceiverTask) refers to os_q.o(i.OSQPend) for OSQPend
    wers.o(i.WERSRFReceiverTask) refers to stm32_eval.o(i.STM_EVAL_LEDSet) for STM_EVAL_LEDSet
    wers.o(i.WERSRFReceiverTask) refers to nwk_api.o(i.SMPL_Receive) for SMPL_Receive
    wers.o(i.WERSRFReceiverTask) refers to wers.o(i.processMessage) for processMessage
    wers.o(i.WERSRFReceiverTask) refers to os_cpu_a.o(.text) for OS_CPU_SR_Save
    wers.o(i.WERSRFReceiverTask) refers to wers.o(i.PendTransactionToQue) for PendTransactionToQue
    wers.o(i.WERSRFReceiverTask) refers to wers.o(i.WERSSendDataAck) for WERSSendDataAck
    wers.o(i.WERSRFReceiverTask) refers to wers.o(i.BackOffTimeOut) for BackOffTimeOut
    wers.o(i.WERSRFReceiverTask) refers to wers.o(i.WERSResponseCTS) for WERSResponseCTS
    wers.o(i.WERSRFReceiverTask) refers to rf_mem.o(i.rf_mem_free) for rf_mem_free
    wers.o(i.WERSRFReceiverTask) refers to wers.o(.data) for g_RTSQue
    wers.o(i.WERSRFReceiverTask) refers to wers.o(.bss) for g_stWERSGetTransaction
    wers.o(i.WERSReadDevice) refers to flash.o(i.Flash_Read) for Flash_Read
    wers.o(i.WERSReadDevice) refers to flash.o(i.Flash_Write) for Flash_Write
    wers.o(i.WERSReadDevice) refers to wers.o(.constdata) for Default_Addr
    wers.o(i.WERSReadDevice) refers to nwk_join.o(.data) for g_MyNodeType
    wers.o(i.WERSResponseCTS) refers to nwk_globals.o(i.nwk_getBCastAddress) for nwk_getBCastAddress
    wers.o(i.WERSResponseCTS) refers to nwk_api.o(i.SMPL_Ioctl) for SMPL_Ioctl
    wers.o(i.WERSSendACK) refers to nwk_api.o(i.SMPL_Send) for SMPL_Send
    wers.o(i.WERSSendACK) refers to wers.o(i.WERS_RandomDelay) for WERS_RandomDelay
    wers.o(i.WERSSendDataAck) refers to nwk.o(i.nwk_getConnInfo) for nwk_getConnInfo
    wers.o(i.WERSSendDataAck) refers to nwk_globals.o(i.nwk_getBCastAddress) for nwk_getBCastAddress
    wers.o(i.WERSSendDataAck) refers to nwk_api.o(i.SMPL_Ioctl) for SMPL_Ioctl
    wers.o(i.WERSSendDataAck) refers to dtimer.o(i.mDelay) for mDelay
    wers.o(i.WERSSendRTS) refers to nwk.o(i.nwk_getConnInfo) for nwk_getConnInfo
    wers.o(i.WERSSendRTS) refers to nwk_globals.o(i.nwk_getBCastAddress) for nwk_getBCastAddress
    wers.o(i.WERSSendRTS) refers to wers.o(i.BackOffTimeOut) for BackOffTimeOut
    wers.o(i.WERSSendRTS) refers to nwk_api.o(i.SMPL_Ioctl) for SMPL_Ioctl
    wers.o(i.WERSSendRTS) refers to dtimer.o(i.mDelay) for mDelay
    wers.o(i.WERSSendRTS) refers to wers.o(i.MILD_min) for MILD_min
    wers.o(i.WERSSendRTS) refers to wers.o(i.MILD_max) for MILD_max
    wers.o(i.WERSSendRTS) refers to wers.o(i.RestNotifyCode) for RestNotifyCode
    wers.o(i.WERSSendRTS) refers to wers.o(i.CheckTimeOutEx) for CheckTimeOutEx
    wers.o(i.WERSSendRTS) refers to wers.o(.data) for sBegintime
    wers.o(i.WERSSendResponseForAP) refers to rf_mem.o(i.rf_mem_malloc) for rf_mem_malloc
    wers.o(i.WERSSendResponseForAP) refers to memcpy.o(.text) for __aeabi_memcpy
    wers.o(i.WERSSendResponseForAP) refers to wers.o(i.WERSGenerate_RF_GUID) for WERSGenerate_RF_GUID
    wers.o(i.WERSSendResponseForAP) refers to wers.o(i.WERS_Transmit) for WERS_Transmit
    wers.o(i.WERSSendResponseForAP) refers to rf_mem.o(i.rf_mem_free) for rf_mem_free
    wers.o(i.WERSSetDeviceAddress) refers to nwk_api.o(i.SMPL_Ioctl) for SMPL_Ioctl
    wers.o(i.WERSSetSystemID) refers to wers.o(.data) for g_WERSSystemId
    wers.o(i.WERSTimerISR) refers to os_q.o(i.OSQPost) for OSQPost
    wers.o(i.WERSTimerISR) refers to wers.o(.data) for WERSQue
    wers.o(i.WERSWriteDevice) refers to flash.o(i.Flash_Write) for Flash_Write
    wers.o(i.WERS_ClearTranscationQueu) refers to wers.o(i.WERS_RemoveTranscationFromQ) for WERS_RemoveTranscationFromQ
    wers.o(i.WERS_ClearTranscationQueu) refers to wers.o(i.WERS_QfindOldest) for WERS_QfindOldest
    wers.o(i.WERS_GetOldestTranscation) refers to wers.o(i.WERS_QfindOldest) for WERS_QfindOldest
    wers.o(i.WERS_GetOldestTranscation) refers to wers.o(i.WERSMsTimeGet) for WERSMsTimeGet
    wers.o(i.WERS_GetOldestTranscation) refers to wers.o(i.WERS_RemoveTranscationFromQ) for WERS_RemoveTranscationFromQ
    wers.o(i.WERS_InsertPacketToQ) refers to os_sem.o(i.OSSemPost) for OSSemPost
    wers.o(i.WERS_InsertPacketToQ) refers to wers.o(i.cal_crc) for cal_crc
    wers.o(i.WERS_InsertPacketToQ) refers to wers.o(i.WERS485SendDataAck) for WERS485SendDataAck
    wers.o(i.WERS_InsertPacketToQ) refers to wers.o(i.WERS_RemoveGUIDFromMap) for WERS_RemoveGUIDFromMap
    wers.o(i.WERS_InsertPacketToQ) refers to wers.o(i.WERSMsTimeGet) for WERSMsTimeGet
    wers.o(i.WERS_InsertPacketToQ) refers to rf_mem.o(i.rf_mem_malloc) for rf_mem_malloc
    wers.o(i.WERS_InsertPacketToQ) refers to memcpy.o(.text) for __aeabi_memcpy
    wers.o(i.WERS_InsertPacketToQ) refers to os_q.o(i.OSQPost) for OSQPost
    wers.o(i.WERS_InsertPacketToQ) refers to wers.o(.data) for g_pDataRecevieOkSem
    wers.o(i.WERS_InsertPacketToQEx) refers to os_cpu_a.o(.text) for OS_CPU_SR_Save
    wers.o(i.WERS_InsertPacketToQEx) refers to rf_mem.o(i.rf_mem_malloc) for rf_mem_malloc
    wers.o(i.WERS_InsertPacketToQEx) refers to memcpy.o(.text) for __aeabi_memcpy
    wers.o(i.WERS_InsertPacketToQEx) refers to wers.o(.bss) for sWERSInFrameQ
    wers.o(i.WERS_QInit) refers to memseta.o(.text) for __aeabi_memclr4
    wers.o(i.WERS_QInit) refers to wers.o(.bss) for sWERSTransactionInQ
    wers.o(i.WERS_QadjustOrder) refers to os_cpu_a.o(.text) for OS_CPU_SR_Save
    wers.o(i.WERS_QadjustOrder) refers to wers.o(.bss) for sWERSTransactionInQ
    wers.o(i.WERS_QfindByGUID) refers to os_cpu_a.o(.text) for OS_CPU_SR_Save
    wers.o(i.WERS_QfindByGUID) refers to wers.o(.bss) for sWERSTransactionInQ
    wers.o(i.WERS_QfindOldest) refers to os_cpu_a.o(.text) for OS_CPU_SR_Save
    wers.o(i.WERS_QfindOldest) refers to wers.o(.bss) for sWERSTransactionInQ
    wers.o(i.WERS_QfindSlot) refers to wers.o(i.WERS_QadjustOrder) for WERS_QadjustOrder
    wers.o(i.WERS_QfindSlot) refers to wers.o(.bss) for sWERSTransactionInQ
    wers.o(i.WERS_RTS_CTS_Notify) refers to dtimer.o(i.tmrMsTimeGet) for tmrMsTimeGet
    wers.o(i.WERS_RTS_CTS_Notify) refers to rf_mem.o(i.rf_mem_malloc) for rf_mem_malloc
    wers.o(i.WERS_RTS_CTS_Notify) refers to memcpy.o(.text) for __aeabi_memcpy
    wers.o(i.WERS_RTS_CTS_Notify) refers to os_q.o(i.OSQPost) for OSQPost
    wers.o(i.WERS_RTS_CTS_Notify) refers to rf_mem.o(i.rf_mem_free) for rf_mem_free
    wers.o(i.WERS_RTS_CTS_Notify) refers to wers.o(.data) for g_BackOffBegintime
    wers.o(i.WERS_RandomDelay) refers to mrfi.o(i.MRFI_RandomByte) for MRFI_RandomByte
    wers.o(i.WERS_RandomDelay) refers to dtimer.o(i.uDelay) for uDelay
    wers.o(i.WERS_RandomDelay) refers to dtimer.o(i.mDelay) for mDelay
    wers.o(i.WERS_ReSend_Reply) refers to nwk.o(i.nwk_getConnInfo) for nwk_getConnInfo
    wers.o(i.WERS_ReSend_Reply) refers to nwk_api.o(i.SMPL_Ioctl) for SMPL_Ioctl
    wers.o(i.WERS_ReceiveFromPC) refers to wers.o(.bss) for sWERSInFrameQ
    wers.o(i.WERS_RemoveGUIDFromMap) refers to os_cpu_a.o(.text) for OS_CPU_SR_Save
    wers.o(i.WERS_RemoveGUIDFromMap) refers to wers.o(.bss) for sGUIDMaps
    wers.o(i.WERS_RemoveGUIDFromMap) refers to wers.o(.data) for sNumGUIDforPCEmenu
    wers.o(i.WERS_RemoveTimeOutGUIDFromMap) refers to os_cpu_a.o(.text) for OS_CPU_SR_Save
    wers.o(i.WERS_RemoveTimeOutGUIDFromMap) refers to wers.o(i.WERSMsTimeGet) for WERSMsTimeGet
    wers.o(i.WERS_RemoveTimeOutGUIDFromMap) refers to wers.o(.bss) for sGUIDMaps
    wers.o(i.WERS_RemoveTimeOutGUIDFromMap) refers to wers.o(.data) for sNumGUIDforPCEmenu
    wers.o(i.WERS_RemoveTranscationFromQ) refers to wers.o(i.WERS_QadjustOrder) for WERS_QadjustOrder
    wers.o(i.WERS_RemoveTranscationFromQ) refers to rf_mem.o(i.rf_mem_free) for rf_mem_free
    wers.o(i.WERS_RemoveTranscationFromQByGUID) refers to wers.o(i.WERS_QfindByGUID) for WERS_QfindByGUID
    wers.o(i.WERS_RemoveTranscationFromQByGUID) refers to wers.o(i.WERS_RemoveTranscationFromQ) for WERS_RemoveTranscationFromQ
    wers.o(i.WERS_SaveGUIDToMap) refers to os_cpu_a.o(.text) for OS_CPU_SR_Save
    wers.o(i.WERS_SaveGUIDToMap) refers to memcpy.o(.text) for __aeabi_memcpy4
    wers.o(i.WERS_SaveGUIDToMap) refers to wers.o(.data) for sNumGUIDforPCEmenu
    wers.o(i.WERS_SaveGUIDToMap) refers to wers.o(.bss) for sGUIDMaps
    wers.o(i.WERS_SaveReceivedTranscationInQ) refers to wers.o(i.WERS_QfindSlot) for WERS_QfindSlot
    wers.o(i.WERS_SaveReceivedTranscationInQ) refers to wers.o(i.WERS_QfindOldest) for WERS_QfindOldest
    wers.o(i.WERS_SaveReceivedTranscationInQ) refers to wers.o(i.WERS_QadjustOrder) for WERS_QadjustOrder
    wers.o(i.WERS_SaveReceivedTranscationInQ) refers to rf_mem.o(i.rf_mem_free) for rf_mem_free
    wers.o(i.WERS_Transmit) refers to nwk.o(i.nwk_getConnInfo) for nwk_getConnInfo
    wers.o(i.WERS_Transmit) refers to os_cpu_a.o(.text) for OS_CPU_SR_Save
    wers.o(i.WERS_Transmit) refers to dtimer.o(i.tmrMsTimeGet) for tmrMsTimeGet
    wers.o(i.WERS_Transmit) refers to wers.o(i.BackOffTimeOutEx) for BackOffTimeOutEx
    wers.o(i.WERS_Transmit) refers to wers.o(i.RF_SendRTS) for RF_SendRTS
    wers.o(i.WERS_Transmit) refers to wers.o(i.RFMacSemPend) for RFMacSemPend
    wers.o(i.WERS_Transmit) refers to wers.o(i.MILD_min) for MILD_min
    wers.o(i.WERS_Transmit) refers to dtimer.o(i.mDelay) for mDelay
    wers.o(i.WERS_Transmit) refers to wers.o(i.MILD_max) for MILD_max
    wers.o(i.WERS_Transmit) refers to wers.o(i.SMPL_SendEx) for SMPL_SendEx
    wers.o(i.WERS_Transmit) refers to wers.o(.data) for g_NotifyCode
    wers.o(i.WERS_init) refers to rf_mem.o(i.rf_mem_init) for rf_mem_init
    wers.o(i.WERS_init) refers to os_task.o(i.OSTaskCreate) for OSTaskCreate
    wers.o(i.WERS_init) refers to wers.o(.bss) for WERSEDBgroundTaskStk
    wers.o(i.WERS_init) refers to wers.o(i.WERSExTask) for WERSExTask
    wers.o(i.WERS_processReSendRequest) refers to rf_mem.o(i.rf_mem_malloc) for rf_mem_malloc
    wers.o(i.WERS_processReSendRequest) refers to memcpy.o(.text) for __aeabi_memcpy
    wers.o(i.WERS_processReSendRequest) refers to os_q.o(i.OSQPost) for OSQPost
    wers.o(i.WERS_processReSendRequest) refers to rf_mem.o(i.rf_mem_free) for rf_mem_free
    wers.o(i.WERS_processReSendRequest) refers to wers.o(.data) for WERSQue
    wers.o(i.cal_crc) refers to wers.o(.constdata) for crc_ta
    wers.o(i.cal_crc8) refers to wers.o(.constdata) for crc8_ta
    wers.o(i.processMessage) refers to rf_mem.o(i.rf_mem_malloc) for rf_mem_malloc
    wers.o(i.processMessage) refers to memcpy.o(.text) for __aeabi_memcpy
    wers.o(i.processMessage) refers to nwk_api.o(i.SMPL_Receive) for SMPL_Receive
    wers.o(i.processMessage) refers to wers.o(i.CheckTimeOut) for CheckTimeOut
    wers.o(i.processMessage) refers to rf_mem.o(i.rf_mem_free) for rf_mem_free
    wers.o(i.processMessage) refers to wers.o(i.SearchTransactionGUID) for SearchTransactionGUID
    wers.o(i.processMessage) refers to wers.o(i.AddNewTransactionToQue) for AddNewTransactionToQue
    wers.o(i.processMessage) refers to wers.o(i.WERSMsTimeGet) for WERSMsTimeGet
    wers.o(i.processMessage) refers to os_q.o(i.OSQPost) for OSQPost
    wers.o(i.processMessage) refers to wers.o(.data) for gs_linkID
    wers.o(i.processMessage) refers to nwk_join.o(.data) for g_MyNodeType
    wers.o(i.processMessage) refers to wers.o(.bss) for g_stWERSGetTransaction
    wers.o(i.sCB) refers to wers.o(.data) for sPeerFrameSem
    wers.o(i.sReset) refers to os_cpu_a.o(.text) for OS_CPU_SR_Save
    wers.o(i.sReset) refers to memseta.o(.text) for __aeabi_memclr4
    wers.o(i.sReset) refers to wers.o(.data) for sNumCurrentPeers
    wers.o(i.sReset) refers to wers.o(.bss) for sLID
    wers.o(.constdata) refers to wers.o(i.WERS_processReSendRequest) for WERS_processReSendRequest
    wers.o(.constdata) refers to wers.o(i.WERS_RTS_CTS_Notify) for WERS_RTS_CTS_Notify
    wers.o(.data) refers to wers.o(.bss) for ls_data
    rf_wd.o(i.WatchDogInit) refers to stm32f10x_iwdg.o(i.IWDG_WriteAccessCmd) for IWDG_WriteAccessCmd
    rf_wd.o(i.WatchDogInit) refers to stm32f10x_iwdg.o(i.IWDG_SetPrescaler) for IWDG_SetPrescaler
    rf_wd.o(i.WatchDogInit) refers to stm32f10x_iwdg.o(i.IWDG_SetReload) for IWDG_SetReload
    rf_wd.o(i.WatchDogInit) refers to stm32f10x_iwdg.o(i.IWDG_ReloadCounter) for IWDG_ReloadCounter
    rf_wd.o(i.WatchDogInit) refers to dtimer.o(i.CreateTimerEx) for CreateTimerEx
    rf_wd.o(i.WatchDogInit) refers to dtimer.o(i.StartTimer) for StartTimer
    rf_wd.o(i.WatchDogInit) refers to stm32f10x_iwdg.o(i.IWDG_Enable) for IWDG_Enable
    rf_wd.o(i.WatchDogInit) refers to rf_wd.o(i.watchDogTask) for watchDogTask
    rf_wd.o(i.WatchDogInit) refers to rf_wd.o(.data) for g_WatchDogTimerID
    rf_wd.o(i.watchDogTask) refers to stm32f10x_iwdg.o(i.IWDG_ReloadCounter) for IWDG_ReloadCounter
    rf_wd.o(i.watchDogTask) refers to mrfi.o(i.ResetReceive) for ResetReceive
    rf_wd.o(i.watchDogTask) refers to wers.o(.data) for gs_DeviceState
    rf_wd.o(i.watchDogTask) refers to mrfi.o(.data) for g_intr_idle
    rf_mem.o(i.rf_mem_free) refers to os_cpu_a.o(.text) for OS_CPU_SR_Save
    rf_mem.o(i.rf_mem_free) refers to printf8.o(i.__0printf$8) for __2printf
    rf_mem.o(i.rf_mem_free) refers to rf_mem.o(i.rf_plug_holes) for rf_plug_holes
    rf_mem.o(i.rf_mem_free) refers to rf_mem.o(.bss) for rf_ram
    rf_mem.o(i.rf_mem_free) refers to rf_mem.o(.data) for rf_ram_end
    rf_mem.o(i.rf_mem_init) refers to memseta.o(.text) for __aeabi_memclr
    rf_mem.o(i.rf_mem_init) refers to rf_mem.o(.bss) for rf_ram
    rf_mem.o(i.rf_mem_init) refers to rf_mem.o(.data) for rf_ram_end
    rf_mem.o(i.rf_mem_malloc) refers to os_cpu_a.o(.text) for OS_CPU_SR_Save
    rf_mem.o(i.rf_mem_malloc) refers to printf8.o(i.__0printf$8) for __2printf
    rf_mem.o(i.rf_mem_malloc) refers to rf_mem.o(.data) for rf_lfree
    rf_mem.o(i.rf_mem_malloc) refers to rf_mem.o(.bss) for rf_ram
    rf_mem.o(i.rf_mem_realloc) refers to os_cpu_a.o(.text) for OS_CPU_SR_Save
    rf_mem.o(i.rf_mem_realloc) refers to printf8.o(i.__0printf$8) for __2printf
    rf_mem.o(i.rf_mem_realloc) refers to rf_mem.o(i.rf_plug_holes) for rf_plug_holes
    rf_mem.o(i.rf_mem_realloc) refers to rf_mem.o(.bss) for rf_ram
    rf_mem.o(i.rf_mem_realloc) refers to rf_mem.o(.data) for rf_ram_end
    rf_mem.o(i.rf_mem_reallocm) refers to rf_mem.o(i.rf_mem_malloc) for rf_mem_malloc
    rf_mem.o(i.rf_mem_reallocm) refers to rf_mem.o(i.rf_mem_realloc) for rf_mem_realloc
    rf_mem.o(i.rf_mem_reallocm) refers to memcpy.o(.text) for __aeabi_memcpy
    rf_mem.o(i.rf_mem_reallocm) refers to rf_mem.o(i.rf_mem_free) for rf_mem_free
    rf_mem.o(i.rf_plug_holes) refers to printf8.o(i.__0printf$8) for __2printf
    rf_mem.o(i.rf_plug_holes) refers to rf_mem.o(.bss) for rf_ram
    rf_mem.o(i.rf_plug_holes) refers to rf_mem.o(.data) for rf_ram_end
    os_cpu_c.o(i.OSInitHookBegin) refers to os_cpu_c.o(.data) for OSTmrCtr
    os_cpu_c.o(i.OSTimeTickHook) refers to os_tmr.o(i.OSTmrSignal) for OSTmrSignal
    os_cpu_c.o(i.OSTimeTickHook) refers to os_cpu_c.o(.data) for OSTmrCtr
    os_cpu_a.o(.text) refers to os_cpu_c.o(i.OSTaskSwHook) for OSTaskSwHook
    os_cpu_a.o(.text) refers to os_core.o(i.OSIntExit) for OSIntExit
    os_cpu_a.o(.text) refers to os_core.o(.data) for OSIntNesting
    os_core.o(i.OSEventNameGet) refers to os_cpu_a.o(.text) for OS_CPU_SR_Save
    os_core.o(i.OSEventNameGet) refers to os_core.o(i.OS_StrCopy) for OS_StrCopy
    os_core.o(i.OSEventNameGet) refers to os_core.o(.data) for OSIntNesting
    os_core.o(i.OSEventNameSet) refers to os_cpu_a.o(.text) for OS_CPU_SR_Save
    os_core.o(i.OSEventNameSet) refers to os_core.o(i.OS_StrLen) for OS_StrLen
    os_core.o(i.OSEventNameSet) refers to os_core.o(i.OS_StrCopy) for OS_StrCopy
    os_core.o(i.OSEventNameSet) refers to os_core.o(.data) for OSIntNesting
    os_core.o(i.OSInit) refers to os_cpu_c.o(i.OSInitHookBegin) for OSInitHookBegin
    os_core.o(i.OSInit) refers to os_core.o(i.OS_InitMisc) for OS_InitMisc
    os_core.o(i.OSInit) refers to os_core.o(i.OS_InitRdyList) for OS_InitRdyList
    os_core.o(i.OSInit) refers to os_core.o(i.OS_InitTCBList) for OS_InitTCBList
    os_core.o(i.OSInit) refers to os_core.o(i.OS_InitEventList) for OS_InitEventList
    os_core.o(i.OSInit) refers to os_flag.o(i.OS_FlagInit) for OS_FlagInit
    os_core.o(i.OSInit) refers to os_mem.o(i.OS_MemInit) for OS_MemInit
    os_core.o(i.OSInit) refers to os_q.o(i.OS_QInit) for OS_QInit
    os_core.o(i.OSInit) refers to os_core.o(i.OS_InitTaskIdle) for OS_InitTaskIdle
    os_core.o(i.OSInit) refers to os_core.o(i.OS_InitTaskStat) for OS_InitTaskStat
    os_core.o(i.OSInit) refers to os_tmr.o(i.OSTmr_Init) for OSTmr_Init
    os_core.o(i.OSInit) refers to os_cpu_c.o(i.OSInitHookEnd) for OSInitHookEnd
    os_core.o(i.OSIntEnter) refers to os_core.o(.data) for OSRunning
    os_core.o(i.OSIntExit) refers to os_cpu_a.o(.text) for OS_CPU_SR_Save
    os_core.o(i.OSIntExit) refers to os_core.o(i.OS_SchedNew) for OS_SchedNew
    os_core.o(i.OSIntExit) refers to printf8.o(i.__0printf$8) for __2printf
    os_core.o(i.OSIntExit) refers to os_core.o(.data) for OSRunning
    os_core.o(i.OSIntExit) refers to os_core.o(.bss) for OSTCBPrioTbl
    os_core.o(i.OSSchedLock) refers to os_cpu_a.o(.text) for OS_CPU_SR_Save
    os_core.o(i.OSSchedLock) refers to os_core.o(.data) for OSRunning
    os_core.o(i.OSSchedUnlock) refers to os_cpu_a.o(.text) for OS_CPU_SR_Save
    os_core.o(i.OSSchedUnlock) refers to os_core.o(i.OS_Sched) for OS_Sched
    os_core.o(i.OSSchedUnlock) refers to os_core.o(.data) for OSRunning
    os_core.o(i.OSStart) refers to os_core.o(i.OS_SchedNew) for OS_SchedNew
    os_core.o(i.OSStart) refers to os_cpu_a.o(.text) for OSStartHighRdy
    os_core.o(i.OSStart) refers to os_core.o(.data) for OSRunning
    os_core.o(i.OSStart) refers to os_core.o(.bss) for OSTCBPrioTbl
    os_core.o(i.OSStatInit) refers to os_time.o(i.OSTimeDly) for OSTimeDly
    os_core.o(i.OSStatInit) refers to os_cpu_a.o(.text) for OS_CPU_SR_Save
    os_core.o(i.OSStatInit) refers to os_core.o(.data) for OSIdleCtr
    os_core.o(i.OSTimeTick) refers to os_cpu_c.o(i.OSTimeTickHook) for OSTimeTickHook
    os_core.o(i.OSTimeTick) refers to os_cpu_a.o(.text) for OS_CPU_SR_Save
    os_core.o(i.OSTimeTick) refers to os_core.o(.data) for OSTime
    os_core.o(i.OS_EventTOAbort) refers to os_core.o(.data) for OSTCBCur
    os_core.o(i.OS_EventTaskRdy) refers to os_core.o(.constdata) for OSUnMapTbl
    os_core.o(i.OS_EventTaskRdy) refers to os_core.o(.bss) for OSTCBPrioTbl
    os_core.o(i.OS_EventTaskRdy) refers to os_core.o(.data) for OSRdyGrp
    os_core.o(i.OS_EventTaskWait) refers to os_core.o(.data) for OSTCBCur
    os_core.o(i.OS_InitEventList) refers to os_core.o(i.OS_MemClr) for OS_MemClr
    os_core.o(i.OS_InitEventList) refers to os_core.o(.bss) for OSEventTbl
    os_core.o(i.OS_InitEventList) refers to os_core.o(.data) for OSEventFreeList
    os_core.o(i.OS_InitMisc) refers to os_core.o(.data) for OSTime
    os_core.o(i.OS_InitRdyList) refers to os_core.o(.data) for OSRdyGrp
    os_core.o(i.OS_InitTCBList) refers to os_core.o(i.OS_MemClr) for OS_MemClr
    os_core.o(i.OS_InitTCBList) refers to os_core.o(.bss) for OSTCBTbl
    os_core.o(i.OS_InitTCBList) refers to os_core.o(.data) for OSTCBList
    os_core.o(i.OS_InitTaskIdle) refers to os_task.o(i.OSTaskCreateExt) for OSTaskCreateExt
    os_core.o(i.OS_InitTaskIdle) refers to os_task.o(i.OSTaskNameSet) for OSTaskNameSet
    os_core.o(i.OS_InitTaskIdle) refers to os_core.o(.bss) for OSTaskIdleStk
    os_core.o(i.OS_InitTaskIdle) refers to os_core.o(i.OS_TaskIdle) for OS_TaskIdle
    os_core.o(i.OS_InitTaskStat) refers to os_task.o(i.OSTaskCreateExt) for OSTaskCreateExt
    os_core.o(i.OS_InitTaskStat) refers to os_task.o(i.OSTaskNameSet) for OSTaskNameSet
    os_core.o(i.OS_InitTaskStat) refers to os_core.o(.bss) for OSTaskStatStk
    os_core.o(i.OS_InitTaskStat) refers to os_core.o(i.OS_TaskStat) for OS_TaskStat
    os_core.o(i.OS_Sched) refers to os_cpu_a.o(.text) for OS_CPU_SR_Save
    os_core.o(i.OS_Sched) refers to os_core.o(i.OS_SchedNew) for OS_SchedNew
    os_core.o(i.OS_Sched) refers to printf8.o(i.__0printf$8) for __2printf
    os_core.o(i.OS_Sched) refers to os_core.o(.data) for OSIntNesting
    os_core.o(i.OS_Sched) refers to os_core.o(.bss) for OSTCBPrioTbl
    os_core.o(i.OS_SchedNew) refers to os_core.o(.constdata) for OSUnMapTbl
    os_core.o(i.OS_SchedNew) refers to os_core.o(.data) for OSRdyGrp
    os_core.o(i.OS_TCBInit) refers to os_cpu_a.o(.text) for OS_CPU_SR_Save
    os_core.o(i.OS_TCBInit) refers to os_cpu_c.o(i.OSTCBInitHook) for OSTCBInitHook
    os_core.o(i.OS_TCBInit) refers to os_cpu_c.o(i.OSTaskCreateHook) for OSTaskCreateHook
    os_core.o(i.OS_TCBInit) refers to os_core.o(.data) for OSTCBFreeList
    os_core.o(i.OS_TCBInit) refers to os_core.o(.bss) for OSTCBPrioTbl
    os_core.o(i.OS_TaskIdle) refers to os_cpu_a.o(.text) for OS_CPU_SR_Save
    os_core.o(i.OS_TaskIdle) refers to os_cpu_c.o(i.OSTaskIdleHook) for OSTaskIdleHook
    os_core.o(i.OS_TaskIdle) refers to os_core.o(.data) for OSIdleCtr
    os_core.o(i.OS_TaskStat) refers to os_time.o(i.OSTimeDly) for OSTimeDly
    os_core.o(i.OS_TaskStat) refers to os_cpu_a.o(.text) for OS_CPU_SR_Save
    os_core.o(i.OS_TaskStat) refers to os_cpu_c.o(i.OSTaskStatHook) for OSTaskStatHook
    os_core.o(i.OS_TaskStat) refers to os_core.o(i.OS_TaskStatStkChk) for OS_TaskStatStkChk
    os_core.o(i.OS_TaskStat) refers to os_core.o(.data) for OSStatRdy
    os_core.o(i.OS_TaskStatStkChk) refers to os_task.o(i.OSTaskStkChk) for OSTaskStkChk
    os_core.o(i.OS_TaskStatStkChk) refers to os_core.o(.bss) for OSTCBPrioTbl
    os_flag.o(i.OSFlagAccept) refers to os_cpu_a.o(.text) for OS_CPU_SR_Save
    os_flag.o(i.OSFlagCreate) refers to os_cpu_a.o(.text) for OS_CPU_SR_Save
    os_flag.o(i.OSFlagCreate) refers to os_core.o(.data) for OSIntNesting
    os_flag.o(i.OSFlagDel) refers to os_cpu_a.o(.text) for OS_CPU_SR_Save
    os_flag.o(i.OSFlagDel) refers to os_flag.o(i.OS_FlagTaskRdy) for OS_FlagTaskRdy
    os_flag.o(i.OSFlagDel) refers to os_core.o(i.OS_Sched) for OS_Sched
    os_flag.o(i.OSFlagDel) refers to os_core.o(.data) for OSIntNesting
    os_flag.o(i.OSFlagNameGet) refers to os_cpu_a.o(.text) for OS_CPU_SR_Save
    os_flag.o(i.OSFlagNameGet) refers to os_core.o(i.OS_StrCopy) for OS_StrCopy
    os_flag.o(i.OSFlagNameGet) refers to os_core.o(.data) for OSIntNesting
    os_flag.o(i.OSFlagNameSet) refers to os_cpu_a.o(.text) for OS_CPU_SR_Save
    os_flag.o(i.OSFlagNameSet) refers to os_core.o(i.OS_StrLen) for OS_StrLen
    os_flag.o(i.OSFlagNameSet) refers to os_core.o(i.OS_StrCopy) for OS_StrCopy
    os_flag.o(i.OSFlagNameSet) refers to os_core.o(.data) for OSIntNesting
    os_flag.o(i.OSFlagPend) refers to os_cpu_a.o(.text) for OS_CPU_SR_Save
    os_flag.o(i.OSFlagPend) refers to os_flag.o(i.OS_FlagBlock) for OS_FlagBlock
    os_flag.o(i.OSFlagPend) refers to os_core.o(i.OS_Sched) for OS_Sched
    os_flag.o(i.OSFlagPend) refers to os_flag.o(i.OS_FlagUnlink) for OS_FlagUnlink
    os_flag.o(i.OSFlagPend) refers to os_core.o(.data) for OSIntNesting
    os_flag.o(i.OSFlagPendGetFlagsRdy) refers to os_cpu_a.o(.text) for OS_CPU_SR_Save
    os_flag.o(i.OSFlagPendGetFlagsRdy) refers to os_core.o(.data) for OSTCBCur
    os_flag.o(i.OSFlagPost) refers to os_cpu_a.o(.text) for OS_CPU_SR_Save
    os_flag.o(i.OSFlagPost) refers to os_flag.o(i.OS_FlagTaskRdy) for OS_FlagTaskRdy
    os_flag.o(i.OSFlagPost) refers to os_core.o(i.OS_Sched) for OS_Sched
    os_flag.o(i.OSFlagQuery) refers to os_cpu_a.o(.text) for OS_CPU_SR_Save
    os_flag.o(i.OS_FlagBlock) refers to os_core.o(.data) for OSTCBCur
    os_flag.o(i.OS_FlagInit) refers to os_core.o(i.OS_MemClr) for OS_MemClr
    os_flag.o(i.OS_FlagInit) refers to os_core.o(.bss) for OSFlagTbl
    os_flag.o(i.OS_FlagInit) refers to os_core.o(.data) for OSFlagFreeList
    os_flag.o(i.OS_FlagTaskRdy) refers to os_flag.o(i.OS_FlagUnlink) for OS_FlagUnlink
    os_flag.o(i.OS_FlagTaskRdy) refers to os_core.o(.data) for OSRdyGrp
    os_mbox.o(i.OSMboxAccept) refers to os_cpu_a.o(.text) for OS_CPU_SR_Save
    os_mbox.o(i.OSMboxCreate) refers to os_cpu_a.o(.text) for OS_CPU_SR_Save
    os_mbox.o(i.OSMboxCreate) refers to os_core.o(i.OS_EventWaitListInit) for OS_EventWaitListInit
    os_mbox.o(i.OSMboxCreate) refers to os_core.o(.data) for OSIntNesting
    os_mbox.o(i.OSMboxDel) refers to os_cpu_a.o(.text) for OS_CPU_SR_Save
    os_mbox.o(i.OSMboxDel) refers to os_core.o(i.OS_EventTaskRdy) for OS_EventTaskRdy
    os_mbox.o(i.OSMboxDel) refers to os_core.o(i.OS_Sched) for OS_Sched
    os_mbox.o(i.OSMboxDel) refers to os_core.o(.data) for OSIntNesting
    os_mbox.o(i.OSMboxPend) refers to os_cpu_a.o(.text) for OS_CPU_SR_Save
    os_mbox.o(i.OSMboxPend) refers to os_core.o(i.OS_EventTaskWait) for OS_EventTaskWait
    os_mbox.o(i.OSMboxPend) refers to os_core.o(i.OS_Sched) for OS_Sched
    os_mbox.o(i.OSMboxPend) refers to os_core.o(i.OS_EventTOAbort) for OS_EventTOAbort
    os_mbox.o(i.OSMboxPend) refers to os_core.o(.data) for OSIntNesting
    os_mbox.o(i.OSMboxPendAbort) refers to os_cpu_a.o(.text) for OS_CPU_SR_Save
    os_mbox.o(i.OSMboxPendAbort) refers to os_core.o(i.OS_EventTaskRdy) for OS_EventTaskRdy
    os_mbox.o(i.OSMboxPendAbort) refers to os_core.o(i.OS_Sched) for OS_Sched
    os_mbox.o(i.OSMboxPost) refers to os_cpu_a.o(.text) for OS_CPU_SR_Save
    os_mbox.o(i.OSMboxPost) refers to os_core.o(i.OS_EventTaskRdy) for OS_EventTaskRdy
    os_mbox.o(i.OSMboxPost) refers to os_core.o(i.OS_Sched) for OS_Sched
    os_mbox.o(i.OSMboxPostOpt) refers to os_cpu_a.o(.text) for OS_CPU_SR_Save
    os_mbox.o(i.OSMboxPostOpt) refers to os_core.o(i.OS_EventTaskRdy) for OS_EventTaskRdy
    os_mbox.o(i.OSMboxPostOpt) refers to os_core.o(i.OS_Sched) for OS_Sched
    os_mbox.o(i.OSMboxQuery) refers to os_cpu_a.o(.text) for OS_CPU_SR_Save
    os_mem.o(i.OSMemCreate) refers to os_cpu_a.o(.text) for OS_CPU_SR_Save
    os_mem.o(i.OSMemCreate) refers to os_core.o(.data) for OSMemFreeList
    os_mem.o(i.OSMemGet) refers to os_cpu_a.o(.text) for OS_CPU_SR_Save
    os_mem.o(i.OSMemNameGet) refers to os_cpu_a.o(.text) for OS_CPU_SR_Save
    os_mem.o(i.OSMemNameGet) refers to os_core.o(i.OS_StrCopy) for OS_StrCopy
    os_mem.o(i.OSMemNameGet) refers to os_core.o(.data) for OSIntNesting
    os_mem.o(i.OSMemNameSet) refers to os_cpu_a.o(.text) for OS_CPU_SR_Save
    os_mem.o(i.OSMemNameSet) refers to os_core.o(i.OS_StrLen) for OS_StrLen
    os_mem.o(i.OSMemNameSet) refers to os_core.o(i.OS_StrCopy) for OS_StrCopy
    os_mem.o(i.OSMemNameSet) refers to os_core.o(.data) for OSIntNesting
    os_mem.o(i.OSMemPut) refers to os_cpu_a.o(.text) for OS_CPU_SR_Save
    os_mem.o(i.OSMemQuery) refers to os_cpu_a.o(.text) for OS_CPU_SR_Save
    os_mem.o(i.OS_MemInit) refers to os_core.o(i.OS_MemClr) for OS_MemClr
    os_mem.o(i.OS_MemInit) refers to os_core.o(.bss) for OSMemTbl
    os_mem.o(i.OS_MemInit) refers to os_core.o(.data) for OSMemFreeList
    os_mutex.o(i.OSMutexAccept) refers to os_cpu_a.o(.text) for OS_CPU_SR_Save
    os_mutex.o(i.OSMutexAccept) refers to os_core.o(.data) for OSIntNesting
    os_mutex.o(i.OSMutexCreate) refers to os_cpu_a.o(.text) for OS_CPU_SR_Save
    os_mutex.o(i.OSMutexCreate) refers to os_core.o(i.OS_EventWaitListInit) for OS_EventWaitListInit
    os_mutex.o(i.OSMutexCreate) refers to os_core.o(.data) for OSIntNesting
    os_mutex.o(i.OSMutexCreate) refers to os_core.o(.bss) for OSTCBPrioTbl
    os_mutex.o(i.OSMutexDel) refers to os_cpu_a.o(.text) for OS_CPU_SR_Save
    os_mutex.o(i.OSMutexDel) refers to os_mutex.o(i.OSMutex_RdyAtPrio) for OSMutex_RdyAtPrio
    os_mutex.o(i.OSMutexDel) refers to os_core.o(i.OS_EventTaskRdy) for OS_EventTaskRdy
    os_mutex.o(i.OSMutexDel) refers to os_core.o(i.OS_Sched) for OS_Sched
    os_mutex.o(i.OSMutexDel) refers to os_core.o(.data) for OSIntNesting
    os_mutex.o(i.OSMutexDel) refers to os_core.o(.bss) for OSTCBPrioTbl
    os_mutex.o(i.OSMutexPend) refers to os_cpu_a.o(.text) for OS_CPU_SR_Save
    os_mutex.o(i.OSMutexPend) refers to os_core.o(i.OS_EventTaskWait) for OS_EventTaskWait
    os_mutex.o(i.OSMutexPend) refers to os_core.o(i.OS_Sched) for OS_Sched
    os_mutex.o(i.OSMutexPend) refers to os_core.o(i.OS_EventTOAbort) for OS_EventTOAbort
    os_mutex.o(i.OSMutexPend) refers to os_core.o(.data) for OSIntNesting
    os_mutex.o(i.OSMutexPend) refers to os_core.o(.bss) for OSTCBPrioTbl
    os_mutex.o(i.OSMutexPost) refers to os_cpu_a.o(.text) for OS_CPU_SR_Save
    os_mutex.o(i.OSMutexPost) refers to os_mutex.o(i.OSMutex_RdyAtPrio) for OSMutex_RdyAtPrio
    os_mutex.o(i.OSMutexPost) refers to os_core.o(i.OS_EventTaskRdy) for OS_EventTaskRdy
    os_mutex.o(i.OSMutexPost) refers to os_core.o(i.OS_Sched) for OS_Sched
    os_mutex.o(i.OSMutexPost) refers to os_core.o(.data) for OSIntNesting
    os_mutex.o(i.OSMutexPost) refers to os_core.o(.bss) for OSTCBPrioTbl
    os_mutex.o(i.OSMutexQuery) refers to os_cpu_a.o(.text) for OS_CPU_SR_Save
    os_mutex.o(i.OSMutexQuery) refers to os_core.o(.data) for OSIntNesting
    os_mutex.o(i.OSMutex_RdyAtPrio) refers to os_core.o(.data) for OSRdyTbl
    os_mutex.o(i.OSMutex_RdyAtPrio) refers to os_core.o(.bss) for OSTCBPrioTbl
    os_q.o(i.OSQAccept) refers to os_cpu_a.o(.text) for OS_CPU_SR_Save
    os_q.o(i.OSQCreate) refers to os_cpu_a.o(.text) for OS_CPU_SR_Save
    os_q.o(i.OSQCreate) refers to os_core.o(i.OS_EventWaitListInit) for OS_EventWaitListInit
    os_q.o(i.OSQCreate) refers to os_core.o(.data) for OSIntNesting
    os_q.o(i.OSQDel) refers to os_cpu_a.o(.text) for OS_CPU_SR_Save
    os_q.o(i.OSQDel) refers to os_core.o(i.OS_EventTaskRdy) for OS_EventTaskRdy
    os_q.o(i.OSQDel) refers to os_core.o(i.OS_Sched) for OS_Sched
    os_q.o(i.OSQDel) refers to os_core.o(.data) for OSIntNesting
    os_q.o(i.OSQFlush) refers to os_cpu_a.o(.text) for OS_CPU_SR_Save
    os_q.o(i.OSQPend) refers to os_cpu_a.o(.text) for OS_CPU_SR_Save
    os_q.o(i.OSQPend) refers to os_core.o(i.OS_EventTaskWait) for OS_EventTaskWait
    os_q.o(i.OSQPend) refers to os_core.o(i.OS_Sched) for OS_Sched
    os_q.o(i.OSQPend) refers to os_core.o(i.OS_EventTOAbort) for OS_EventTOAbort
    os_q.o(i.OSQPend) refers to os_core.o(.data) for OSIntNesting
    os_q.o(i.OSQPendAbort) refers to os_cpu_a.o(.text) for OS_CPU_SR_Save
    os_q.o(i.OSQPendAbort) refers to os_core.o(i.OS_EventTaskRdy) for OS_EventTaskRdy
    os_q.o(i.OSQPendAbort) refers to os_core.o(i.OS_Sched) for OS_Sched
    os_q.o(i.OSQPost) refers to os_cpu_a.o(.text) for OS_CPU_SR_Save
    os_q.o(i.OSQPost) refers to os_core.o(i.OS_EventTaskRdy) for OS_EventTaskRdy
    os_q.o(i.OSQPost) refers to os_core.o(i.OS_Sched) for OS_Sched
    os_q.o(i.OSQPostFront) refers to os_cpu_a.o(.text) for OS_CPU_SR_Save
    os_q.o(i.OSQPostFront) refers to os_core.o(i.OS_EventTaskRdy) for OS_EventTaskRdy
    os_q.o(i.OSQPostFront) refers to os_core.o(i.OS_Sched) for OS_Sched
    os_q.o(i.OSQPostOpt) refers to os_cpu_a.o(.text) for OS_CPU_SR_Save
    os_q.o(i.OSQPostOpt) refers to os_core.o(i.OS_EventTaskRdy) for OS_EventTaskRdy
    os_q.o(i.OSQPostOpt) refers to os_core.o(i.OS_Sched) for OS_Sched
    os_q.o(i.OSQQuery) refers to os_cpu_a.o(.text) for OS_CPU_SR_Save
    os_q.o(i.OS_QInit) refers to os_core.o(i.OS_MemClr) for OS_MemClr
    os_q.o(i.OS_QInit) refers to os_core.o(.bss) for OSQTbl
    os_q.o(i.OS_QInit) refers to os_core.o(.data) for OSQFreeList
    os_sem.o(i.OSSemAccept) refers to os_cpu_a.o(.text) for OS_CPU_SR_Save
    os_sem.o(i.OSSemCreate) refers to os_cpu_a.o(.text) for OS_CPU_SR_Save
    os_sem.o(i.OSSemCreate) refers to os_core.o(i.OS_EventWaitListInit) for OS_EventWaitListInit
    os_sem.o(i.OSSemCreate) refers to os_core.o(.data) for OSIntNesting
    os_sem.o(i.OSSemDel) refers to os_cpu_a.o(.text) for OS_CPU_SR_Save
    os_sem.o(i.OSSemDel) refers to os_core.o(i.OS_EventTaskRdy) for OS_EventTaskRdy
    os_sem.o(i.OSSemDel) refers to os_core.o(i.OS_Sched) for OS_Sched
    os_sem.o(i.OSSemDel) refers to os_core.o(.data) for OSIntNesting
    os_sem.o(i.OSSemPend) refers to os_cpu_a.o(.text) for OS_CPU_SR_Save
    os_sem.o(i.OSSemPend) refers to os_core.o(i.OS_EventTaskWait) for OS_EventTaskWait
    os_sem.o(i.OSSemPend) refers to os_core.o(i.OS_Sched) for OS_Sched
    os_sem.o(i.OSSemPend) refers to os_core.o(i.OS_EventTOAbort) for OS_EventTOAbort
    os_sem.o(i.OSSemPend) refers to os_core.o(.data) for OSIntNesting
    os_sem.o(i.OSSemPendAbort) refers to os_cpu_a.o(.text) for OS_CPU_SR_Save
    os_sem.o(i.OSSemPendAbort) refers to os_core.o(i.OS_EventTaskRdy) for OS_EventTaskRdy
    os_sem.o(i.OSSemPendAbort) refers to os_core.o(i.OS_Sched) for OS_Sched
    os_sem.o(i.OSSemPost) refers to os_cpu_a.o(.text) for OS_CPU_SR_Save
    os_sem.o(i.OSSemPost) refers to os_core.o(i.OS_EventTaskRdy) for OS_EventTaskRdy
    os_sem.o(i.OSSemPost) refers to os_core.o(i.OS_Sched) for OS_Sched
    os_sem.o(i.OSSemQuery) refers to os_cpu_a.o(.text) for OS_CPU_SR_Save
    os_sem.o(i.OSSemSet) refers to os_cpu_a.o(.text) for OS_CPU_SR_Save
    os_task.o(i.OSTaskChangePrio) refers to os_cpu_a.o(.text) for OS_CPU_SR_Save
    os_task.o(i.OSTaskChangePrio) refers to os_core.o(i.OS_Sched) for OS_Sched
    os_task.o(i.OSTaskChangePrio) refers to os_core.o(.bss) for OSTCBPrioTbl
    os_task.o(i.OSTaskChangePrio) refers to os_core.o(.data) for OSTCBCur
    os_task.o(i.OSTaskCreate) refers to os_cpu_a.o(.text) for OS_CPU_SR_Save
    os_task.o(i.OSTaskCreate) refers to os_cpu_c.o(i.OSTaskStkInit) for OSTaskStkInit
    os_task.o(i.OSTaskCreate) refers to os_core.o(i.OS_TCBInit) for OS_TCBInit
    os_task.o(i.OSTaskCreate) refers to os_core.o(i.OS_Sched) for OS_Sched
    os_task.o(i.OSTaskCreate) refers to os_core.o(.data) for OSIntNesting
    os_task.o(i.OSTaskCreate) refers to os_core.o(.bss) for OSTCBPrioTbl
    os_task.o(i.OSTaskCreateExt) refers to os_cpu_a.o(.text) for OS_CPU_SR_Save
    os_task.o(i.OSTaskCreateExt) refers to os_task.o(i.OS_TaskStkClr) for OS_TaskStkClr
    os_task.o(i.OSTaskCreateExt) refers to os_cpu_c.o(i.OSTaskStkInit) for OSTaskStkInit
    os_task.o(i.OSTaskCreateExt) refers to os_core.o(i.OS_TCBInit) for OS_TCBInit
    os_task.o(i.OSTaskCreateExt) refers to os_core.o(i.OS_Sched) for OS_Sched
    os_task.o(i.OSTaskCreateExt) refers to os_core.o(.data) for OSIntNesting
    os_task.o(i.OSTaskCreateExt) refers to os_core.o(.bss) for OSTCBPrioTbl
    os_task.o(i.OSTaskDel) refers to os_cpu_a.o(.text) for OS_CPU_SR_Save
    os_task.o(i.OSTaskDel) refers to os_flag.o(i.OS_FlagUnlink) for OS_FlagUnlink
    os_task.o(i.OSTaskDel) refers to os_core.o(i.OS_Dummy) for OS_Dummy
    os_task.o(i.OSTaskDel) refers to os_cpu_c.o(i.OSTaskDelHook) for OSTaskDelHook
    os_task.o(i.OSTaskDel) refers to os_core.o(i.OS_Sched) for OS_Sched
    os_task.o(i.OSTaskDel) refers to os_core.o(.data) for OSIntNesting
    os_task.o(i.OSTaskDel) refers to os_core.o(.bss) for OSTCBPrioTbl
    os_task.o(i.OSTaskDelReq) refers to os_cpu_a.o(.text) for OS_CPU_SR_Save
    os_task.o(i.OSTaskDelReq) refers to os_core.o(.data) for OSTCBCur
    os_task.o(i.OSTaskDelReq) refers to os_core.o(.bss) for OSTCBPrioTbl
    os_task.o(i.OSTaskNameGet) refers to os_cpu_a.o(.text) for OS_CPU_SR_Save
    os_task.o(i.OSTaskNameGet) refers to os_core.o(i.OS_StrCopy) for OS_StrCopy
    os_task.o(i.OSTaskNameGet) refers to os_core.o(.data) for OSIntNesting
    os_task.o(i.OSTaskNameGet) refers to os_core.o(.bss) for OSTCBPrioTbl
    os_task.o(i.OSTaskNameSet) refers to os_cpu_a.o(.text) for OS_CPU_SR_Save
    os_task.o(i.OSTaskNameSet) refers to os_core.o(i.OS_StrLen) for OS_StrLen
    os_task.o(i.OSTaskNameSet) refers to os_core.o(i.OS_StrCopy) for OS_StrCopy
    os_task.o(i.OSTaskNameSet) refers to os_core.o(.data) for OSIntNesting
    os_task.o(i.OSTaskNameSet) refers to os_core.o(.bss) for OSTCBPrioTbl
    os_task.o(i.OSTaskQuery) refers to os_cpu_a.o(.text) for OS_CPU_SR_Save
    os_task.o(i.OSTaskQuery) refers to os_core.o(i.OS_MemCopy) for OS_MemCopy
    os_task.o(i.OSTaskQuery) refers to os_core.o(.data) for OSTCBCur
    os_task.o(i.OSTaskQuery) refers to os_core.o(.bss) for OSTCBPrioTbl
    os_task.o(i.OSTaskResume) refers to os_cpu_a.o(.text) for OS_CPU_SR_Save
    os_task.o(i.OSTaskResume) refers to os_core.o(i.OS_Sched) for OS_Sched
    os_task.o(i.OSTaskResume) refers to os_core.o(.bss) for OSTCBPrioTbl
    os_task.o(i.OSTaskResume) refers to os_core.o(.data) for OSRdyGrp
    os_task.o(i.OSTaskStkChk) refers to os_cpu_a.o(.text) for OS_CPU_SR_Save
    os_task.o(i.OSTaskStkChk) refers to os_core.o(.data) for OSTCBCur
    os_task.o(i.OSTaskStkChk) refers to os_core.o(.bss) for OSTCBPrioTbl
    os_task.o(i.OSTaskSuspend) refers to os_cpu_a.o(.text) for OS_CPU_SR_Save
    os_task.o(i.OSTaskSuspend) refers to os_core.o(i.OS_Sched) for OS_Sched
    os_task.o(i.OSTaskSuspend) refers to os_core.o(.data) for OSTCBCur
    os_task.o(i.OSTaskSuspend) refers to os_core.o(.bss) for OSTCBPrioTbl
    os_time.o(i.OSTimeDly) refers to os_cpu_a.o(.text) for OS_CPU_SR_Save
    os_time.o(i.OSTimeDly) refers to os_core.o(i.OS_Sched) for OS_Sched
    os_time.o(i.OSTimeDly) refers to os_core.o(.data) for OSIntNesting
    os_time.o(i.OSTimeDlyHMSM) refers to os_time.o(i.OSTimeDly) for OSTimeDly
    os_time.o(i.OSTimeDlyHMSM) refers to os_core.o(.data) for OSIntNesting
    os_time.o(i.OSTimeDlyResume) refers to os_cpu_a.o(.text) for OS_CPU_SR_Save
    os_time.o(i.OSTimeDlyResume) refers to os_core.o(i.OS_Sched) for OS_Sched
    os_time.o(i.OSTimeDlyResume) refers to os_core.o(.bss) for OSTCBPrioTbl
    os_time.o(i.OSTimeDlyResume) refers to os_core.o(.data) for OSRdyGrp
    os_time.o(i.OSTimeGet) refers to os_cpu_a.o(.text) for OS_CPU_SR_Save
    os_time.o(i.OSTimeGet) refers to os_core.o(.data) for OSTime
    os_time.o(i.OSTimeSet) refers to os_cpu_a.o(.text) for OS_CPU_SR_Save
    os_time.o(i.OSTimeSet) refers to os_core.o(.data) for OSTime
    os_tmr.o(i.OSTmrCreate) refers to os_tmr.o(i.OSTmr_Lock) for OSTmr_Lock
    os_tmr.o(i.OSTmrCreate) refers to os_tmr.o(i.OSTmr_Alloc) for OSTmr_Alloc
    os_tmr.o(i.OSTmrCreate) refers to os_tmr.o(i.OSTmr_Unlock) for OSTmr_Unlock
    os_tmr.o(i.OSTmrCreate) refers to os_core.o(i.OS_StrLen) for OS_StrLen
    os_tmr.o(i.OSTmrCreate) refers to os_core.o(i.OS_StrCopy) for OS_StrCopy
    os_tmr.o(i.OSTmrCreate) refers to os_core.o(.data) for OSIntNesting
    os_tmr.o(i.OSTmrDel) refers to os_tmr.o(i.OSTmr_Lock) for OSTmr_Lock
    os_tmr.o(i.OSTmrDel) refers to os_tmr.o(i.OSTmr_Unlink) for OSTmr_Unlink
    os_tmr.o(i.OSTmrDel) refers to os_tmr.o(i.OSTmr_Free) for OSTmr_Free
    os_tmr.o(i.OSTmrDel) refers to os_tmr.o(i.OSTmr_Unlock) for OSTmr_Unlock
    os_tmr.o(i.OSTmrDel) refers to os_core.o(.data) for OSIntNesting
    os_tmr.o(i.OSTmrNameGet) refers to os_tmr.o(i.OSTmr_Lock) for OSTmr_Lock
    os_tmr.o(i.OSTmrNameGet) refers to os_core.o(i.OS_StrCopy) for OS_StrCopy
    os_tmr.o(i.OSTmrNameGet) refers to os_tmr.o(i.OSTmr_Unlock) for OSTmr_Unlock
    os_tmr.o(i.OSTmrNameGet) refers to os_core.o(.data) for OSIntNesting
    os_tmr.o(i.OSTmrRemainGet) refers to os_tmr.o(i.OSTmr_Lock) for OSTmr_Lock
    os_tmr.o(i.OSTmrRemainGet) refers to os_tmr.o(i.OSTmr_Unlock) for OSTmr_Unlock
    os_tmr.o(i.OSTmrRemainGet) refers to os_core.o(.data) for OSIntNesting
    os_tmr.o(i.OSTmrSignal) refers to os_sem.o(i.OSSemPost) for OSSemPost
    os_tmr.o(i.OSTmrSignal) refers to os_core.o(.data) for OSTmrSemSignal
    os_tmr.o(i.OSTmrStart) refers to os_tmr.o(i.OSTmr_Lock) for OSTmr_Lock
    os_tmr.o(i.OSTmrStart) refers to os_tmr.o(i.OSTmr_Unlink) for OSTmr_Unlink
    os_tmr.o(i.OSTmrStart) refers to os_tmr.o(i.OSTmr_Link) for OSTmr_Link
    os_tmr.o(i.OSTmrStart) refers to os_tmr.o(i.OSTmr_Unlock) for OSTmr_Unlock
    os_tmr.o(i.OSTmrStart) refers to os_core.o(.data) for OSIntNesting
    os_tmr.o(i.OSTmrStateGet) refers to os_tmr.o(i.OSTmr_Lock) for OSTmr_Lock
    os_tmr.o(i.OSTmrStateGet) refers to os_tmr.o(i.OSTmr_Unlock) for OSTmr_Unlock
    os_tmr.o(i.OSTmrStateGet) refers to os_core.o(.data) for OSIntNesting
    os_tmr.o(i.OSTmrStop) refers to os_tmr.o(i.OSTmr_Lock) for OSTmr_Lock
    os_tmr.o(i.OSTmrStop) refers to os_tmr.o(i.OSTmr_Unlink) for OSTmr_Unlink
    os_tmr.o(i.OSTmrStop) refers to os_tmr.o(i.OSTmr_Unlock) for OSTmr_Unlock
    os_tmr.o(i.OSTmrStop) refers to os_core.o(.data) for OSIntNesting
    os_tmr.o(i.OSTmr_Alloc) refers to os_core.o(.data) for OSTmrFreeList
    os_tmr.o(i.OSTmr_Free) refers to os_core.o(.data) for OSTmrFreeList
    os_tmr.o(i.OSTmr_Init) refers to os_core.o(i.OS_MemClr) for OS_MemClr
    os_tmr.o(i.OSTmr_Init) refers to os_sem.o(i.OSSemCreate) for OSSemCreate
    os_tmr.o(i.OSTmr_Init) refers to os_core.o(i.OSEventNameSet) for OSEventNameSet
    os_tmr.o(i.OSTmr_Init) refers to os_tmr.o(i.OSTmr_InitTask) for OSTmr_InitTask
    os_tmr.o(i.OSTmr_Init) refers to os_core.o(.bss) for OSTmrTbl
    os_tmr.o(i.OSTmr_Init) refers to os_core.o(.data) for OSTmrTime
    os_tmr.o(i.OSTmr_InitTask) refers to os_task.o(i.OSTaskCreateExt) for OSTaskCreateExt
    os_tmr.o(i.OSTmr_InitTask) refers to os_task.o(i.OSTaskNameSet) for OSTaskNameSet
    os_tmr.o(i.OSTmr_InitTask) refers to os_core.o(.bss) for OSTmrTaskStk
    os_tmr.o(i.OSTmr_InitTask) refers to os_tmr.o(i.OSTmr_Task) for OSTmr_Task
    os_tmr.o(i.OSTmr_Link) refers to os_core.o(.data) for OSTmrTime
    os_tmr.o(i.OSTmr_Link) refers to os_core.o(.bss) for OSTmrWheelTbl
    os_tmr.o(i.OSTmr_Lock) refers to os_sem.o(i.OSSemPend) for OSSemPend
    os_tmr.o(i.OSTmr_Lock) refers to os_core.o(.data) for OSTmrSem
    os_tmr.o(i.OSTmr_Task) refers to os_sem.o(i.OSSemPend) for OSSemPend
    os_tmr.o(i.OSTmr_Task) refers to os_tmr.o(i.OSTmr_Lock) for OSTmr_Lock
    os_tmr.o(i.OSTmr_Task) refers to os_tmr.o(i.OSTmr_Unlink) for OSTmr_Unlink
    os_tmr.o(i.OSTmr_Task) refers to os_tmr.o(i.OSTmr_Link) for OSTmr_Link
    os_tmr.o(i.OSTmr_Task) refers to os_tmr.o(i.OSTmr_Unlock) for OSTmr_Unlock
    os_tmr.o(i.OSTmr_Task) refers to os_core.o(.data) for OSTmrSemSignal
    os_tmr.o(i.OSTmr_Task) refers to os_core.o(.bss) for OSTmrWheelTbl
    os_tmr.o(i.OSTmr_Unlink) refers to os_core.o(.bss) for OSTmrWheelTbl
    os_tmr.o(i.OSTmr_Unlock) refers to os_sem.o(i.OSSemPost) for OSSemPost
    os_tmr.o(i.OSTmr_Unlock) refers to os_core.o(.data) for OSTmrSem
    entry.o(.ARM.Collect$$$$00000000) refers (Special) to entry7b.o(.ARM.Collect$$$$00000008) for _main_clock
    entry.o(.ARM.Collect$$$$00000000) refers (Special) to entry8.o(.ARM.Collect$$$$00000009) for _main_init
    entry.o(.ARM.Collect$$$$00000000) refers (Special) to entry5.o(.ARM.Collect$$$$00000004) for _main_scatterload
    entry.o(.ARM.Collect$$$$00000000) refers (Special) to entry2.o(.ARM.Collect$$$$00000001) for _main_stk
    printfb.o(i.__0fprintf$bare) refers to printfb.o(i._printf_core) for _printf_core
    printfb.o(i.__0fprintf$bare) refers to uart.o(i.fputc) for fputc
    printfb.o(i.__0printf$bare) refers to printfb.o(i._printf_core) for _printf_core
    printfb.o(i.__0printf$bare) refers to uart.o(i.fputc) for fputc
    printfb.o(i.__0printf$bare) refers to stdout.o(.data) for __stdout
    printfb.o(i.__0snprintf$bare) refers to printfb.o(i._printf_core) for _printf_core
    printfb.o(i.__0snprintf$bare) refers to printfb.o(i._snputc) for _snputc
    printfb.o(i.__0sprintf$bare) refers to printfb.o(i._printf_core) for _printf_core
    printfb.o(i.__0sprintf$bare) refers to printfb.o(i._sputc) for _sputc
    printfb.o(i.__0vfprintf$bare) refers to printfb.o(i._printf_core) for _printf_core
    printfb.o(i.__0vfprintf$bare) refers to uart.o(i.fputc) for fputc
    printfb.o(i.__0vprintf$bare) refers to printfb.o(i._printf_core) for _printf_core
    printfb.o(i.__0vprintf$bare) refers to uart.o(i.fputc) for fputc
    printfb.o(i.__0vprintf$bare) refers to stdout.o(.data) for __stdout
    printfb.o(i.__0vsnprintf$bare) refers to printfb.o(i._printf_core) for _printf_core
    printfb.o(i.__0vsnprintf$bare) refers to printfb.o(i._snputc) for _snputc
    printfb.o(i.__0vsprintf$bare) refers to printfb.o(i._printf_core) for _printf_core
    printfb.o(i.__0vsprintf$bare) refers to printfb.o(i._sputc) for _sputc
    printf0.o(i.__0fprintf$0) refers to printf0.o(i._printf_core) for _printf_core
    printf0.o(i.__0fprintf$0) refers to uart.o(i.fputc) for fputc
    printf0.o(i.__0printf$0) refers to printf0.o(i._printf_core) for _printf_core
    printf0.o(i.__0printf$0) refers to uart.o(i.fputc) for fputc
    printf0.o(i.__0printf$0) refers to stdout.o(.data) for __stdout
    printf0.o(i.__0snprintf$0) refers to printf0.o(i._printf_core) for _printf_core
    printf0.o(i.__0snprintf$0) refers to printf0.o(i._snputc) for _snputc
    printf0.o(i.__0sprintf$0) refers to printf0.o(i._printf_core) for _printf_core
    printf0.o(i.__0sprintf$0) refers to printf0.o(i._sputc) for _sputc
    printf0.o(i.__0vfprintf$0) refers to printf0.o(i._printf_core) for _printf_core
    printf0.o(i.__0vfprintf$0) refers to uart.o(i.fputc) for fputc
    printf0.o(i.__0vprintf$0) refers to printf0.o(i._printf_core) for _printf_core
    printf0.o(i.__0vprintf$0) refers to uart.o(i.fputc) for fputc
    printf0.o(i.__0vprintf$0) refers to stdout.o(.data) for __stdout
    printf0.o(i.__0vsnprintf$0) refers to printf0.o(i._printf_core) for _printf_core
    printf0.o(i.__0vsnprintf$0) refers to printf0.o(i._snputc) for _snputc
    printf0.o(i.__0vsprintf$0) refers to printf0.o(i._printf_core) for _printf_core
    printf0.o(i.__0vsprintf$0) refers to printf0.o(i._sputc) for _sputc
    printf1.o(i.__0fprintf$1) refers to printf1.o(i._printf_core) for _printf_core
    printf1.o(i.__0fprintf$1) refers to uart.o(i.fputc) for fputc
    printf1.o(i.__0printf$1) refers to printf1.o(i._printf_core) for _printf_core
    printf1.o(i.__0printf$1) refers to uart.o(i.fputc) for fputc
    printf1.o(i.__0printf$1) refers to stdout.o(.data) for __stdout
    printf1.o(i.__0snprintf$1) refers to printf1.o(i._printf_core) for _printf_core
    printf1.o(i.__0snprintf$1) refers to printf1.o(i._snputc) for _snputc
    printf1.o(i.__0sprintf$1) refers to printf1.o(i._printf_core) for _printf_core
    printf1.o(i.__0sprintf$1) refers to printf1.o(i._sputc) for _sputc
    printf1.o(i.__0vfprintf$1) refers to printf1.o(i._printf_core) for _printf_core
    printf1.o(i.__0vfprintf$1) refers to uart.o(i.fputc) for fputc
    printf1.o(i.__0vprintf$1) refers to printf1.o(i._printf_core) for _printf_core
    printf1.o(i.__0vprintf$1) refers to uart.o(i.fputc) for fputc
    printf1.o(i.__0vprintf$1) refers to stdout.o(.data) for __stdout
    printf1.o(i.__0vsnprintf$1) refers to printf1.o(i._printf_core) for _printf_core
    printf1.o(i.__0vsnprintf$1) refers to printf1.o(i._snputc) for _snputc
    printf1.o(i.__0vsprintf$1) refers to printf1.o(i._printf_core) for _printf_core
    printf1.o(i.__0vsprintf$1) refers to printf1.o(i._sputc) for _sputc
    printf1.o(i._printf_core) refers to uidiv.o(.text) for __aeabi_uidivmod
    printf2.o(i.__0fprintf$2) refers to printf2.o(i._printf_core) for _printf_core
    printf2.o(i.__0fprintf$2) refers to uart.o(i.fputc) for fputc
    printf2.o(i.__0printf$2) refers to printf2.o(i._printf_core) for _printf_core
    printf2.o(i.__0printf$2) refers to uart.o(i.fputc) for fputc
    printf2.o(i.__0printf$2) refers to stdout.o(.data) for __stdout
    printf2.o(i.__0snprintf$2) refers to printf2.o(i._printf_core) for _printf_core
    printf2.o(i.__0snprintf$2) refers to printf2.o(i._snputc) for _snputc
    printf2.o(i.__0sprintf$2) refers to printf2.o(i._printf_core) for _printf_core
    printf2.o(i.__0sprintf$2) refers to printf2.o(i._sputc) for _sputc
    printf2.o(i.__0vfprintf$2) refers to printf2.o(i._printf_core) for _printf_core
    printf2.o(i.__0vfprintf$2) refers to uart.o(i.fputc) for fputc
    printf2.o(i.__0vprintf$2) refers to printf2.o(i._printf_core) for _printf_core
    printf2.o(i.__0vprintf$2) refers to uart.o(i.fputc) for fputc
    printf2.o(i.__0vprintf$2) refers to stdout.o(.data) for __stdout
    printf2.o(i.__0vsnprintf$2) refers to printf2.o(i._printf_core) for _printf_core
    printf2.o(i.__0vsnprintf$2) refers to printf2.o(i._snputc) for _snputc
    printf2.o(i.__0vsprintf$2) refers to printf2.o(i._printf_core) for _printf_core
    printf2.o(i.__0vsprintf$2) refers to printf2.o(i._sputc) for _sputc
    printf3.o(i.__0fprintf$3) refers to printf3.o(i._printf_core) for _printf_core
    printf3.o(i.__0fprintf$3) refers to uart.o(i.fputc) for fputc
    printf3.o(i.__0printf$3) refers to printf3.o(i._printf_core) for _printf_core
    printf3.o(i.__0printf$3) refers to uart.o(i.fputc) for fputc
    printf3.o(i.__0printf$3) refers to stdout.o(.data) for __stdout
    printf3.o(i.__0snprintf$3) refers to printf3.o(i._printf_core) for _printf_core
    printf3.o(i.__0snprintf$3) refers to printf3.o(i._snputc) for _snputc
    printf3.o(i.__0sprintf$3) refers to printf3.o(i._printf_core) for _printf_core
    printf3.o(i.__0sprintf$3) refers to printf3.o(i._sputc) for _sputc
    printf3.o(i.__0vfprintf$3) refers to printf3.o(i._printf_core) for _printf_core
    printf3.o(i.__0vfprintf$3) refers to uart.o(i.fputc) for fputc
    printf3.o(i.__0vprintf$3) refers to printf3.o(i._printf_core) for _printf_core
    printf3.o(i.__0vprintf$3) refers to uart.o(i.fputc) for fputc
    printf3.o(i.__0vprintf$3) refers to stdout.o(.data) for __stdout
    printf3.o(i.__0vsnprintf$3) refers to printf3.o(i._printf_core) for _printf_core
    printf3.o(i.__0vsnprintf$3) refers to printf3.o(i._snputc) for _snputc
    printf3.o(i.__0vsprintf$3) refers to printf3.o(i._printf_core) for _printf_core
    printf3.o(i.__0vsprintf$3) refers to printf3.o(i._sputc) for _sputc
    printf3.o(i._printf_core) refers to uidiv.o(.text) for __aeabi_uidivmod
    printf4.o(i.__0fprintf$4) refers to printf4.o(i._printf_core) for _printf_core
    printf4.o(i.__0fprintf$4) refers to uart.o(i.fputc) for fputc
    printf4.o(i.__0printf$4) refers to printf4.o(i._printf_core) for _printf_core
    printf4.o(i.__0printf$4) refers to uart.o(i.fputc) for fputc
    printf4.o(i.__0printf$4) refers to stdout.o(.data) for __stdout
    printf4.o(i.__0snprintf$4) refers to printf4.o(i._printf_core) for _printf_core
    printf4.o(i.__0snprintf$4) refers to printf4.o(i._snputc) for _snputc
    printf4.o(i.__0sprintf$4) refers to printf4.o(i._printf_core) for _printf_core
    printf4.o(i.__0sprintf$4) refers to printf4.o(i._sputc) for _sputc
    printf4.o(i.__0vfprintf$4) refers to printf4.o(i._printf_core) for _printf_core
    printf4.o(i.__0vfprintf$4) refers to uart.o(i.fputc) for fputc
    printf4.o(i.__0vprintf$4) refers to printf4.o(i._printf_core) for _printf_core
    printf4.o(i.__0vprintf$4) refers to uart.o(i.fputc) for fputc
    printf4.o(i.__0vprintf$4) refers to stdout.o(.data) for __stdout
    printf4.o(i.__0vsnprintf$4) refers to printf4.o(i._printf_core) for _printf_core
    printf4.o(i.__0vsnprintf$4) refers to printf4.o(i._snputc) for _snputc
    printf4.o(i.__0vsprintf$4) refers to printf4.o(i._printf_core) for _printf_core
    printf4.o(i.__0vsprintf$4) refers to printf4.o(i._sputc) for _sputc
    printf4.o(i._printf_core) refers to uldiv.o(.text) for __aeabi_uldivmod
    printf5.o(i.__0fprintf$5) refers to printf5.o(i._printf_core) for _printf_core
    printf5.o(i.__0fprintf$5) refers to uart.o(i.fputc) for fputc
    printf5.o(i.__0printf$5) refers to printf5.o(i._printf_core) for _printf_core
    printf5.o(i.__0printf$5) refers to uart.o(i.fputc) for fputc
    printf5.o(i.__0printf$5) refers to stdout.o(.data) for __stdout
    printf5.o(i.__0snprintf$5) refers to printf5.o(i._printf_core) for _printf_core
    printf5.o(i.__0snprintf$5) refers to printf5.o(i._snputc) for _snputc
    printf5.o(i.__0sprintf$5) refers to printf5.o(i._printf_core) for _printf_core
    printf5.o(i.__0sprintf$5) refers to printf5.o(i._sputc) for _sputc
    printf5.o(i.__0vfprintf$5) refers to printf5.o(i._printf_core) for _printf_core
    printf5.o(i.__0vfprintf$5) refers to uart.o(i.fputc) for fputc
    printf5.o(i.__0vprintf$5) refers to printf5.o(i._printf_core) for _printf_core
    printf5.o(i.__0vprintf$5) refers to uart.o(i.fputc) for fputc
    printf5.o(i.__0vprintf$5) refers to stdout.o(.data) for __stdout
    printf5.o(i.__0vsnprintf$5) refers to printf5.o(i._printf_core) for _printf_core
    printf5.o(i.__0vsnprintf$5) refers to printf5.o(i._snputc) for _snputc
    printf5.o(i.__0vsprintf$5) refers to printf5.o(i._printf_core) for _printf_core
    printf5.o(i.__0vsprintf$5) refers to printf5.o(i._sputc) for _sputc
    printf5.o(i._printf_core) refers to uldiv.o(.text) for __aeabi_uldivmod
    printf6.o(i.__0fprintf$6) refers to printf6.o(i._printf_core) for _printf_core
    printf6.o(i.__0fprintf$6) refers to uart.o(i.fputc) for fputc
    printf6.o(i.__0printf$6) refers to printf6.o(i._printf_core) for _printf_core
    printf6.o(i.__0printf$6) refers to uart.o(i.fputc) for fputc
    printf6.o(i.__0printf$6) refers to stdout.o(.data) for __stdout
    printf6.o(i.__0snprintf$6) refers to printf6.o(i._printf_core) for _printf_core
    printf6.o(i.__0snprintf$6) refers to printf6.o(i._snputc) for _snputc
    printf6.o(i.__0sprintf$6) refers to printf6.o(i._printf_core) for _printf_core
    printf6.o(i.__0sprintf$6) refers to printf6.o(i._sputc) for _sputc
    printf6.o(i.__0vfprintf$6) refers to printf6.o(i._printf_core) for _printf_core
    printf6.o(i.__0vfprintf$6) refers to uart.o(i.fputc) for fputc
    printf6.o(i.__0vprintf$6) refers to printf6.o(i._printf_core) for _printf_core
    printf6.o(i.__0vprintf$6) refers to uart.o(i.fputc) for fputc
    printf6.o(i.__0vprintf$6) refers to stdout.o(.data) for __stdout
    printf6.o(i.__0vsnprintf$6) refers to printf6.o(i._printf_core) for _printf_core
    printf6.o(i.__0vsnprintf$6) refers to printf6.o(i._snputc) for _snputc
    printf6.o(i.__0vsprintf$6) refers to printf6.o(i._printf_core) for _printf_core
    printf6.o(i.__0vsprintf$6) refers to printf6.o(i._sputc) for _sputc
    printf6.o(i._printf_core) refers to printf6.o(i._printf_pre_padding) for _printf_pre_padding
    printf6.o(i._printf_core) refers to uidiv.o(.text) for __aeabi_uidivmod
    printf6.o(i._printf_core) refers to printf6.o(i._printf_post_padding) for _printf_post_padding
    printf7.o(i.__0fprintf$7) refers to printf7.o(i._printf_core) for _printf_core
    printf7.o(i.__0fprintf$7) refers to uart.o(i.fputc) for fputc
    printf7.o(i.__0printf$7) refers to printf7.o(i._printf_core) for _printf_core
    printf7.o(i.__0printf$7) refers to uart.o(i.fputc) for fputc
    printf7.o(i.__0printf$7) refers to stdout.o(.data) for __stdout
    printf7.o(i.__0snprintf$7) refers to printf7.o(i._printf_core) for _printf_core
    printf7.o(i.__0snprintf$7) refers to printf7.o(i._snputc) for _snputc
    printf7.o(i.__0sprintf$7) refers to printf7.o(i._printf_core) for _printf_core
    printf7.o(i.__0sprintf$7) refers to printf7.o(i._sputc) for _sputc
    printf7.o(i.__0vfprintf$7) refers to printf7.o(i._printf_core) for _printf_core
    printf7.o(i.__0vfprintf$7) refers to uart.o(i.fputc) for fputc
    printf7.o(i.__0vprintf$7) refers to printf7.o(i._printf_core) for _printf_core
    printf7.o(i.__0vprintf$7) refers to uart.o(i.fputc) for fputc
    printf7.o(i.__0vprintf$7) refers to stdout.o(.data) for __stdout
    printf7.o(i.__0vsnprintf$7) refers to printf7.o(i._printf_core) for _printf_core
    printf7.o(i.__0vsnprintf$7) refers to printf7.o(i._snputc) for _snputc
    printf7.o(i.__0vsprintf$7) refers to printf7.o(i._printf_core) for _printf_core
    printf7.o(i.__0vsprintf$7) refers to printf7.o(i._sputc) for _sputc
    printf7.o(i._printf_core) refers to printf7.o(i._printf_pre_padding) for _printf_pre_padding
    printf7.o(i._printf_core) refers to uldiv.o(.text) for __aeabi_uldivmod
    printf7.o(i._printf_core) refers to printf7.o(i._printf_post_padding) for _printf_post_padding
    printf8.o(i.__0fprintf$8) refers to printf8.o(i._printf_core) for _printf_core
    printf8.o(i.__0fprintf$8) refers to uart.o(i.fputc) for fputc
    printf8.o(i.__0printf$8) refers to printf8.o(i._printf_core) for _printf_core
    printf8.o(i.__0printf$8) refers to uart.o(i.fputc) for fputc
    printf8.o(i.__0printf$8) refers to stdout.o(.data) for __stdout
    printf8.o(i.__0snprintf$8) refers to printf8.o(i._printf_core) for _printf_core
    printf8.o(i.__0snprintf$8) refers to printf8.o(i._snputc) for _snputc
    printf8.o(i.__0sprintf$8) refers to printf8.o(i._printf_core) for _printf_core
    printf8.o(i.__0sprintf$8) refers to printf8.o(i._sputc) for _sputc
    printf8.o(i.__0vfprintf$8) refers to printf8.o(i._printf_core) for _printf_core
    printf8.o(i.__0vfprintf$8) refers to uart.o(i.fputc) for fputc
    printf8.o(i.__0vprintf$8) refers to printf8.o(i._printf_core) for _printf_core
    printf8.o(i.__0vprintf$8) refers to uart.o(i.fputc) for fputc
    printf8.o(i.__0vprintf$8) refers to stdout.o(.data) for __stdout
    printf8.o(i.__0vsnprintf$8) refers to printf8.o(i._printf_core) for _printf_core
    printf8.o(i.__0vsnprintf$8) refers to printf8.o(i._snputc) for _snputc
    printf8.o(i.__0vsprintf$8) refers to printf8.o(i._printf_core) for _printf_core
    printf8.o(i.__0vsprintf$8) refers to printf8.o(i._sputc) for _sputc
    printf8.o(i._printf_core) refers to printf8.o(i._printf_pre_padding) for _printf_pre_padding
    printf8.o(i._printf_core) refers to uldiv.o(.text) for __aeabi_uldivmod
    printf8.o(i._printf_core) refers to printf8.o(i._printf_post_padding) for _printf_post_padding
    printfa.o(i.__0fprintf) refers (Special) to iusefp.o(.text) for __I$use$fp
    printfa.o(i.__0fprintf) refers to printfa.o(i._printf_core) for _printf_core
    printfa.o(i.__0fprintf) refers to uart.o(i.fputc) for fputc
    printfa.o(i.__0printf) refers (Special) to iusefp.o(.text) for __I$use$fp
    printfa.o(i.__0printf) refers to printfa.o(i._printf_core) for _printf_core
    printfa.o(i.__0printf) refers to uart.o(i.fputc) for fputc
    printfa.o(i.__0printf) refers to stdout.o(.data) for __stdout
    printfa.o(i.__0snprintf) refers (Special) to iusefp.o(.text) for __I$use$fp
    printfa.o(i.__0snprintf) refers to printfa.o(i._printf_core) for _printf_core
    printfa.o(i.__0snprintf) refers to printfa.o(i._snputc) for _snputc
    printfa.o(i.__0sprintf) refers (Special) to iusefp.o(.text) for __I$use$fp
    printfa.o(i.__0sprintf) refers to printfa.o(i._printf_core) for _printf_core
    printfa.o(i.__0sprintf) refers to printfa.o(i._sputc) for _sputc
    printfa.o(i.__0vfprintf) refers (Special) to iusefp.o(.text) for __I$use$fp
    printfa.o(i.__0vfprintf) refers to printfa.o(i._printf_core) for _printf_core
    printfa.o(i.__0vfprintf) refers to uart.o(i.fputc) for fputc
    printfa.o(i.__0vprintf) refers (Special) to iusefp.o(.text) for __I$use$fp
    printfa.o(i.__0vprintf) refers to printfa.o(i._printf_core) for _printf_core
    printfa.o(i.__0vprintf) refers to uart.o(i.fputc) for fputc
    printfa.o(i.__0vprintf) refers to stdout.o(.data) for __stdout
    printfa.o(i.__0vsnprintf) refers (Special) to iusefp.o(.text) for __I$use$fp
    printfa.o(i.__0vsnprintf) refers to printfa.o(i._printf_core) for _printf_core
    printfa.o(i.__0vsnprintf) refers to printfa.o(i._snputc) for _snputc
    printfa.o(i.__0vsprintf) refers (Special) to iusefp.o(.text) for __I$use$fp
    printfa.o(i.__0vsprintf) refers to printfa.o(i._printf_core) for _printf_core
    printfa.o(i.__0vsprintf) refers to printfa.o(i._sputc) for _sputc
    printfa.o(i._fp_digits) refers (Special) to iusefp.o(.text) for __I$use$fp
    printfa.o(i._fp_digits) refers to dmul.o(.text) for __aeabi_dmul
    printfa.o(i._fp_digits) refers to ddiv.o(.text) for __aeabi_ddiv
    printfa.o(i._fp_digits) refers to cdrcmple.o(.text) for __aeabi_cdrcmple
    printfa.o(i._fp_digits) refers to dadd.o(.text) for __aeabi_dadd
    printfa.o(i._fp_digits) refers to dfixul.o(.text) for __aeabi_d2ulz
    printfa.o(i._fp_digits) refers to uldiv.o(.text) for __aeabi_uldivmod
    printfa.o(i._printf_core) refers (Special) to iusefp.o(.text) for __I$use$fp
    printfa.o(i._printf_core) refers to printfa.o(i._printf_pre_padding) for _printf_pre_padding
    printfa.o(i._printf_core) refers to uldiv.o(.text) for __aeabi_uldivmod
    printfa.o(i._printf_core) refers to printfa.o(i._printf_post_padding) for _printf_post_padding
    printfa.o(i._printf_core) refers to printfa.o(i._fp_digits) for _fp_digits
    printfa.o(i._printf_core) refers to uidiv.o(.text) for __aeabi_uidivmod
    printfa.o(i._printf_post_padding) refers (Special) to iusefp.o(.text) for __I$use$fp
    printfa.o(i._printf_pre_padding) refers (Special) to iusefp.o(.text) for __I$use$fp
    printfa.o(i._snputc) refers (Special) to iusefp.o(.text) for __I$use$fp
    printfa.o(i._sputc) refers (Special) to iusefp.o(.text) for __I$use$fp
    entry2.o(.ARM.Collect$$$$00000001) refers to entry2.o(.ARM.Collect$$$$00002712) for __lit__00000000
    entry2.o(.ARM.Collect$$$$00002712) refers to startup_stm32f10x_hd.o(STACK) for __initial_sp
    entry2.o(__vectab_stack_and_reset_area) refers to startup_stm32f10x_hd.o(STACK) for __initial_sp
    entry2.o(__vectab_stack_and_reset_area) refers to entry.o(.ARM.Collect$$$$00000000) for __main
    entry5.o(.ARM.Collect$$$$00000004) refers to init.o(.text) for __scatterload
    entry8.o(.ARM.Collect$$$$00000009) refers to main.o(i.main) for main
    uldiv.o(.text) refers to llushr.o(.text) for __aeabi_llsr
    uldiv.o(.text) refers to llshl.o(.text) for __aeabi_llsl
    dadd.o(.text) refers to llshl.o(.text) for __aeabi_llsl
    dadd.o(.text) refers to llsshr.o(.text) for __aeabi_lasr
    dadd.o(.text) refers to depilogue.o(.text) for _double_epilogue
    dmul.o(.text) refers to depilogue.o(.text) for _double_epilogue
    ddiv.o(.text) refers to depilogue.o(.text) for _double_round
    dfixul.o(.text) refers to llushr.o(.text) for __aeabi_llsr
    dfixul.o(.text) refers to llshl.o(.text) for __aeabi_llsl
    init.o(.text) refers to entry5.o(.ARM.Collect$$$$00000004) for __main_after_scatterload
    depilogue.o(.text) refers to llshl.o(.text) for __aeabi_llsl
    depilogue.o(.text) refers to llushr.o(.text) for __aeabi_llsr


==============================================================================

Removing Unused input sections from the image.

    Removing main.o(i.Buffercmp), (36 bytes).
    Removing main.o(i.FSMC_SRAM_Init), (248 bytes).
    Removing main.o(.data), (24 bytes).
    Removing stm32f10x_it.o(i.PendSV_Handler), (2 bytes).
    Removing dtimer.o(i.CreateTimer), (28 bytes).
    Removing dtimer.o(i.MsDelay), (24 bytes).
    Removing dtimer.o(i.ResetTimer), (36 bytes).
    Removing dtimer.o(i.StopTimer), (20 bytes).
    Removing dtimer.o(i.tmrDateTimeGet), (4 bytes).
    Removing flash.o(i.Flash_GetAddr), (12 bytes).
    Removing uart.o(i.Dump), (72 bytes).
    Removing core_cm3.o(.emb_text), (32 bytes).
    Removing stm32_eval.o(i.STM_EVAL_PBGetState), (32 bytes).
    Removing stm32_eval.o(i.STM_EVAL_PBInit), (180 bytes).
    Removing system_stm32f10x.o(.constdata), (20 bytes).
    Removing startup_stm32f10x_hd.o(HEAP), (24576 bytes).
    Removing misc.o(i.NVIC_PriorityGroupConfig), (20 bytes).
    Removing misc.o(i.NVIC_SetVectorTable), (20 bytes).
    Removing misc.o(i.NVIC_SystemLPConfig), (32 bytes).
    Removing misc.o(i.SysTick_CLKSourceConfig), (40 bytes).
    Removing stm32f10x_adc.o(i.ADC_AnalogWatchdogCmd), (20 bytes).
    Removing stm32f10x_adc.o(i.ADC_AnalogWatchdogSingleChannelConfig), (16 bytes).
    Removing stm32f10x_adc.o(i.ADC_AnalogWatchdogThresholdsConfig), (6 bytes).
    Removing stm32f10x_adc.o(i.ADC_AutoInjectedConvCmd), (22 bytes).
    Removing stm32f10x_adc.o(i.ADC_ClearFlag), (6 bytes).
    Removing stm32f10x_adc.o(i.ADC_ClearITPendingBit), (10 bytes).
    Removing stm32f10x_adc.o(i.ADC_Cmd), (22 bytes).
    Removing stm32f10x_adc.o(i.ADC_DMACmd), (22 bytes).
    Removing stm32f10x_adc.o(i.ADC_DeInit), (92 bytes).
    Removing stm32f10x_adc.o(i.ADC_DiscModeChannelCountConfig), (24 bytes).
    Removing stm32f10x_adc.o(i.ADC_DiscModeCmd), (22 bytes).
    Removing stm32f10x_adc.o(i.ADC_ExternalTrigConvCmd), (22 bytes).
    Removing stm32f10x_adc.o(i.ADC_ExternalTrigInjectedConvCmd), (22 bytes).
    Removing stm32f10x_adc.o(i.ADC_ExternalTrigInjectedConvConfig), (16 bytes).
    Removing stm32f10x_adc.o(i.ADC_GetCalibrationStatus), (20 bytes).
    Removing stm32f10x_adc.o(i.ADC_GetConversionValue), (8 bytes).
    Removing stm32f10x_adc.o(i.ADC_GetDualModeConversionValue), (12 bytes).
    Removing stm32f10x_adc.o(i.ADC_GetFlagStatus), (18 bytes).
    Removing stm32f10x_adc.o(i.ADC_GetITStatus), (36 bytes).
    Removing stm32f10x_adc.o(i.ADC_GetInjectedConversionValue), (18 bytes).
    Removing stm32f10x_adc.o(i.ADC_GetResetCalibrationStatus), (20 bytes).
    Removing stm32f10x_adc.o(i.ADC_GetSoftwareStartConvStatus), (20 bytes).
    Removing stm32f10x_adc.o(i.ADC_GetSoftwareStartInjectedConvCmdStatus), (20 bytes).
    Removing stm32f10x_adc.o(i.ADC_ITConfig), (24 bytes).
    Removing stm32f10x_adc.o(i.ADC_Init), (80 bytes).
    Removing stm32f10x_adc.o(i.ADC_InjectedChannelConfig), (130 bytes).
    Removing stm32f10x_adc.o(i.ADC_InjectedDiscModeCmd), (22 bytes).
    Removing stm32f10x_adc.o(i.ADC_InjectedSequencerLengthConfig), (24 bytes).
    Removing stm32f10x_adc.o(i.ADC_RegularChannelConfig), (184 bytes).
    Removing stm32f10x_adc.o(i.ADC_ResetCalibration), (10 bytes).
    Removing stm32f10x_adc.o(i.ADC_SetInjectedOffset), (12 bytes).
    Removing stm32f10x_adc.o(i.ADC_SoftwareStartConvCmd), (22 bytes).
    Removing stm32f10x_adc.o(i.ADC_SoftwareStartInjectedConvCmd), (22 bytes).
    Removing stm32f10x_adc.o(i.ADC_StartCalibration), (10 bytes).
    Removing stm32f10x_adc.o(i.ADC_StructInit), (18 bytes).
    Removing stm32f10x_adc.o(i.ADC_TempSensorVrefintCmd), (36 bytes).
    Removing stm32f10x_bkp.o(i.BKP_ClearFlag), (20 bytes).
    Removing stm32f10x_bkp.o(i.BKP_ClearITPendingBit), (20 bytes).
    Removing stm32f10x_bkp.o(i.BKP_DeInit), (16 bytes).
    Removing stm32f10x_bkp.o(i.BKP_GetFlagStatus), (12 bytes).
    Removing stm32f10x_bkp.o(i.BKP_GetITStatus), (12 bytes).
    Removing stm32f10x_bkp.o(i.BKP_ITConfig), (12 bytes).
    Removing stm32f10x_bkp.o(i.BKP_RTCOutputConfig), (28 bytes).
    Removing stm32f10x_bkp.o(i.BKP_ReadBackupRegister), (16 bytes).
    Removing stm32f10x_bkp.o(i.BKP_SetRTCCalibrationValue), (28 bytes).
    Removing stm32f10x_bkp.o(i.BKP_TamperPinCmd), (12 bytes).
    Removing stm32f10x_bkp.o(i.BKP_TamperPinLevelConfig), (12 bytes).
    Removing stm32f10x_bkp.o(i.BKP_WriteBackupRegister), (16 bytes).
    Removing stm32f10x_can.o(i.CAN_CancelTransmit), (48 bytes).
    Removing stm32f10x_can.o(i.CAN_ClearFlag), (8 bytes).
    Removing stm32f10x_can.o(i.CAN_ClearITPendingBit), (166 bytes).
    Removing stm32f10x_can.o(i.CAN_DBGFreeze), (22 bytes).
    Removing stm32f10x_can.o(i.CAN_DeInit), (56 bytes).
    Removing stm32f10x_can.o(i.CAN_FIFORelease), (14 bytes).
    Removing stm32f10x_can.o(i.CAN_FilterInit), (264 bytes).
    Removing stm32f10x_can.o(i.CAN_GetFlagStatus), (18 bytes).
    Removing stm32f10x_can.o(i.CAN_GetITStatus), (238 bytes).
    Removing stm32f10x_can.o(i.CAN_ITConfig), (18 bytes).
    Removing stm32f10x_can.o(i.CAN_Init), (284 bytes).
    Removing stm32f10x_can.o(i.CAN_MessagePending), (30 bytes).
    Removing stm32f10x_can.o(i.CAN_Receive), (234 bytes).
    Removing stm32f10x_can.o(i.CAN_SlaveStartBank), (52 bytes).
    Removing stm32f10x_can.o(i.CAN_Sleep), (30 bytes).
    Removing stm32f10x_can.o(i.CAN_StructInit), (32 bytes).
    Removing stm32f10x_can.o(i.CAN_Transmit), (294 bytes).
    Removing stm32f10x_can.o(i.CAN_TransmitStatus), (142 bytes).
    Removing stm32f10x_can.o(i.CAN_WakeUp), (48 bytes).
    Removing stm32f10x_can.o(i.CheckITStatus), (16 bytes).
    Removing stm32f10x_crc.o(i.CRC_CalcBlockCRC), (36 bytes).
    Removing stm32f10x_crc.o(i.CRC_CalcCRC), (16 bytes).
    Removing stm32f10x_crc.o(i.CRC_GetCRC), (12 bytes).
    Removing stm32f10x_crc.o(i.CRC_GetIDRegister), (12 bytes).
    Removing stm32f10x_crc.o(i.CRC_ResetDR), (12 bytes).
    Removing stm32f10x_crc.o(i.CRC_SetIDRegister), (12 bytes).
    Removing stm32f10x_dac.o(i.DAC_Cmd), (40 bytes).
    Removing stm32f10x_dac.o(i.DAC_DMACmd), (44 bytes).
    Removing stm32f10x_dac.o(i.DAC_DeInit), (22 bytes).
    Removing stm32f10x_dac.o(i.DAC_DualSoftwareTriggerCmd), (36 bytes).
    Removing stm32f10x_dac.o(i.DAC_GetDataOutputValue), (24 bytes).
    Removing stm32f10x_dac.o(i.DAC_Init), (52 bytes).
    Removing stm32f10x_dac.o(i.DAC_SetChannel1Data), (20 bytes).
    Removing stm32f10x_dac.o(i.DAC_SetChannel2Data), (20 bytes).
    Removing stm32f10x_dac.o(i.DAC_SetDualChannelData), (36 bytes).
    Removing stm32f10x_dac.o(i.DAC_SoftwareTriggerCmd), (44 bytes).
    Removing stm32f10x_dac.o(i.DAC_StructInit), (12 bytes).
    Removing stm32f10x_dac.o(i.DAC_WaveGenerationCmd), (40 bytes).
    Removing stm32f10x_dbgmcu.o(i.DBGMCU_Config), (32 bytes).
    Removing stm32f10x_dbgmcu.o(i.DBGMCU_GetDEVID), (16 bytes).
    Removing stm32f10x_dbgmcu.o(i.DBGMCU_GetREVID), (12 bytes).
    Removing stm32f10x_dma.o(i.DMA_ClearFlag), (28 bytes).
    Removing stm32f10x_dma.o(i.DMA_ClearITPendingBit), (28 bytes).
    Removing stm32f10x_dma.o(i.DMA_Cmd), (22 bytes).
    Removing stm32f10x_dma.o(i.DMA_DeInit), (332 bytes).
    Removing stm32f10x_dma.o(i.DMA_GetCurrDataCounter), (8 bytes).
    Removing stm32f10x_dma.o(i.DMA_GetFlagStatus), (44 bytes).
    Removing stm32f10x_dma.o(i.DMA_GetITStatus), (44 bytes).
    Removing stm32f10x_dma.o(i.DMA_ITConfig), (18 bytes).
    Removing stm32f10x_dma.o(i.DMA_Init), (60 bytes).
    Removing stm32f10x_dma.o(i.DMA_StructInit), (26 bytes).
    Removing stm32f10x_exti.o(i.EXTI_ClearFlag), (12 bytes).
    Removing stm32f10x_exti.o(i.EXTI_DeInit), (36 bytes).
    Removing stm32f10x_exti.o(i.EXTI_GenerateSWInterrupt), (16 bytes).
    Removing stm32f10x_exti.o(i.EXTI_GetFlagStatus), (24 bytes).
    Removing stm32f10x_exti.o(i.EXTI_StructInit), (16 bytes).
    Removing stm32f10x_flash.o(i.FLASH_ClearFlag), (12 bytes).
    Removing stm32f10x_flash.o(i.FLASH_EnableWriteProtection), (196 bytes).
    Removing stm32f10x_flash.o(i.FLASH_EraseAllPages), (76 bytes).
    Removing stm32f10x_flash.o(i.FLASH_EraseOptionBytes), (160 bytes).
    Removing stm32f10x_flash.o(i.FLASH_ErasePage), (80 bytes).
    Removing stm32f10x_flash.o(i.FLASH_GetFlagStatus), (48 bytes).
    Removing stm32f10x_flash.o(i.FLASH_GetPrefetchBufferStatus), (24 bytes).
    Removing stm32f10x_flash.o(i.FLASH_GetReadOutProtectionStatus), (24 bytes).
    Removing stm32f10x_flash.o(i.FLASH_GetUserOptionByte), (12 bytes).
    Removing stm32f10x_flash.o(i.FLASH_GetWriteProtectionOptionByte), (12 bytes).
    Removing stm32f10x_flash.o(i.FLASH_HalfCycleAccessCmd), (28 bytes).
    Removing stm32f10x_flash.o(i.FLASH_ITConfig), (32 bytes).
    Removing stm32f10x_flash.o(i.FLASH_Lock), (20 bytes).
    Removing stm32f10x_flash.o(i.FLASH_PrefetchBufferCmd), (28 bytes).
    Removing stm32f10x_flash.o(i.FLASH_ProgramHalfWord), (68 bytes).
    Removing stm32f10x_flash.o(i.FLASH_ProgramOptionByteData), (84 bytes).
    Removing stm32f10x_flash.o(i.FLASH_ProgramWord), (112 bytes).
    Removing stm32f10x_flash.o(i.FLASH_ReadOutProtection), (172 bytes).
    Removing stm32f10x_flash.o(i.FLASH_SetLatency), (24 bytes).
    Removing stm32f10x_flash.o(i.FLASH_Unlock), (24 bytes).
    Removing stm32f10x_flash.o(i.FLASH_UserOptionByteConfig), (108 bytes).
    Removing stm32f10x_fsmc.o(i.FSMC_ClearFlag), (72 bytes).
    Removing stm32f10x_fsmc.o(i.FSMC_ClearITPendingBit), (72 bytes).
    Removing stm32f10x_fsmc.o(i.FSMC_GetECC), (28 bytes).
    Removing stm32f10x_fsmc.o(i.FSMC_GetFlagStatus), (56 bytes).
    Removing stm32f10x_fsmc.o(i.FSMC_GetITStatus), (68 bytes).
    Removing stm32f10x_fsmc.o(i.FSMC_ITConfig), (136 bytes).
    Removing stm32f10x_fsmc.o(i.FSMC_NANDCmd), (92 bytes).
    Removing stm32f10x_fsmc.o(i.FSMC_NANDDeInit), (72 bytes).
    Removing stm32f10x_fsmc.o(i.FSMC_NANDECCCmd), (92 bytes).
    Removing stm32f10x_fsmc.o(i.FSMC_NANDInit), (140 bytes).
    Removing stm32f10x_fsmc.o(i.FSMC_NANDStructInit), (54 bytes).
    Removing stm32f10x_fsmc.o(i.FSMC_NORSRAMCmd), (52 bytes).
    Removing stm32f10x_fsmc.o(i.FSMC_NORSRAMDeInit), (56 bytes).
    Removing stm32f10x_fsmc.o(i.FSMC_NORSRAMInit), (220 bytes).
    Removing stm32f10x_fsmc.o(i.FSMC_NORSRAMStructInit), (112 bytes).
    Removing stm32f10x_fsmc.o(i.FSMC_PCCARDCmd), (48 bytes).
    Removing stm32f10x_fsmc.o(i.FSMC_PCCARDDeInit), (48 bytes).
    Removing stm32f10x_fsmc.o(i.FSMC_PCCARDInit), (136 bytes).
    Removing stm32f10x_fsmc.o(i.FSMC_PCCARDStructInit), (60 bytes).
    Removing stm32f10x_gpio.o(i.GPIO_AFIODeInit), (20 bytes).
    Removing stm32f10x_gpio.o(i.GPIO_DeInit), (200 bytes).
    Removing stm32f10x_gpio.o(i.GPIO_ETH_MediaInterfaceConfig), (12 bytes).
    Removing stm32f10x_gpio.o(i.GPIO_EventOutputCmd), (12 bytes).
    Removing stm32f10x_gpio.o(i.GPIO_EventOutputConfig), (32 bytes).
    Removing stm32f10x_gpio.o(i.GPIO_PinLockConfig), (18 bytes).
    Removing stm32f10x_gpio.o(i.GPIO_PinRemapConfig), (112 bytes).
    Removing stm32f10x_gpio.o(i.GPIO_ReadInputData), (8 bytes).
    Removing stm32f10x_gpio.o(i.GPIO_ReadInputDataBit), (18 bytes).
    Removing stm32f10x_gpio.o(i.GPIO_ReadOutputData), (8 bytes).
    Removing stm32f10x_gpio.o(i.GPIO_ReadOutputDataBit), (18 bytes).
    Removing stm32f10x_gpio.o(i.GPIO_ResetBits), (4 bytes).
    Removing stm32f10x_gpio.o(i.GPIO_SetBits), (4 bytes).
    Removing stm32f10x_gpio.o(i.GPIO_StructInit), (16 bytes).
    Removing stm32f10x_gpio.o(i.GPIO_Write), (4 bytes).
    Removing stm32f10x_gpio.o(i.GPIO_WriteBit), (10 bytes).
    Removing stm32f10x_i2c.o(i.I2C_ARPCmd), (24 bytes).
    Removing stm32f10x_i2c.o(i.I2C_AcknowledgeConfig), (24 bytes).
    Removing stm32f10x_i2c.o(i.I2C_CalculatePEC), (24 bytes).
    Removing stm32f10x_i2c.o(i.I2C_CheckEvent), (38 bytes).
    Removing stm32f10x_i2c.o(i.I2C_ClearFlag), (12 bytes).
    Removing stm32f10x_i2c.o(i.I2C_ClearITPendingBit), (12 bytes).
    Removing stm32f10x_i2c.o(i.I2C_Cmd), (24 bytes).
    Removing stm32f10x_i2c.o(i.I2C_DMACmd), (24 bytes).
    Removing stm32f10x_i2c.o(i.I2C_DMALastTransferCmd), (24 bytes).
    Removing stm32f10x_i2c.o(i.I2C_DeInit), (56 bytes).
    Removing stm32f10x_i2c.o(i.I2C_DualAddressCmd), (24 bytes).
    Removing stm32f10x_i2c.o(i.I2C_FastModeDutyCycleConfig), (28 bytes).
    Removing stm32f10x_i2c.o(i.I2C_GeneralCallCmd), (24 bytes).
    Removing stm32f10x_i2c.o(i.I2C_GenerateSTART), (24 bytes).
    Removing stm32f10x_i2c.o(i.I2C_GenerateSTOP), (24 bytes).
    Removing stm32f10x_i2c.o(i.I2C_GetFlagStatus), (42 bytes).
    Removing stm32f10x_i2c.o(i.I2C_GetITStatus), (38 bytes).
    Removing stm32f10x_i2c.o(i.I2C_GetLastEvent), (26 bytes).
    Removing stm32f10x_i2c.o(i.I2C_GetPEC), (8 bytes).
    Removing stm32f10x_i2c.o(i.I2C_ITConfig), (24 bytes).
    Removing stm32f10x_i2c.o(i.I2C_Init), (236 bytes).
    Removing stm32f10x_i2c.o(i.I2C_OwnAddress2Config), (22 bytes).
    Removing stm32f10x_i2c.o(i.I2C_PECPositionConfig), (28 bytes).
    Removing stm32f10x_i2c.o(i.I2C_ReadRegister), (12 bytes).
    Removing stm32f10x_i2c.o(i.I2C_ReceiveData), (8 bytes).
    Removing stm32f10x_i2c.o(i.I2C_SMBusAlertConfig), (28 bytes).
    Removing stm32f10x_i2c.o(i.I2C_Send7bitAddress), (18 bytes).
    Removing stm32f10x_i2c.o(i.I2C_SendData), (4 bytes).
    Removing stm32f10x_i2c.o(i.I2C_SoftwareResetCmd), (22 bytes).
    Removing stm32f10x_i2c.o(i.I2C_StretchClockCmd), (24 bytes).
    Removing stm32f10x_i2c.o(i.I2C_StructInit), (30 bytes).
    Removing stm32f10x_i2c.o(i.I2C_TransmitPEC), (24 bytes).
    Removing stm32f10x_iwdg.o(i.IWDG_GetFlagStatus), (24 bytes).
    Removing stm32f10x_pwr.o(i.PWR_BackupAccessCmd), (12 bytes).
    Removing stm32f10x_pwr.o(i.PWR_ClearFlag), (20 bytes).
    Removing stm32f10x_pwr.o(i.PWR_DeInit), (22 bytes).
    Removing stm32f10x_pwr.o(i.PWR_EnterSTANDBYMode), (52 bytes).
    Removing stm32f10x_pwr.o(i.PWR_EnterSTOPMode), (52 bytes).
    Removing stm32f10x_pwr.o(i.PWR_GetFlagStatus), (24 bytes).
    Removing stm32f10x_pwr.o(i.PWR_PVDCmd), (12 bytes).
    Removing stm32f10x_pwr.o(i.PWR_PVDLevelConfig), (24 bytes).
    Removing stm32f10x_pwr.o(i.PWR_WakeUpPinCmd), (12 bytes).
    Removing stm32f10x_rcc.o(i.RCC_ADCCLKConfig), (24 bytes).
    Removing stm32f10x_rcc.o(i.RCC_AHBPeriphClockCmd), (32 bytes).
    Removing stm32f10x_rcc.o(i.RCC_APB1PeriphResetCmd), (32 bytes).
    Removing stm32f10x_rcc.o(i.RCC_APB2PeriphResetCmd), (32 bytes).
    Removing stm32f10x_rcc.o(i.RCC_AdjustHSICalibrationValue), (24 bytes).
    Removing stm32f10x_rcc.o(i.RCC_BackupResetCmd), (12 bytes).
    Removing stm32f10x_rcc.o(i.RCC_ClearFlag), (20 bytes).
    Removing stm32f10x_rcc.o(i.RCC_ClearITPendingBit), (12 bytes).
    Removing stm32f10x_rcc.o(i.RCC_ClockSecuritySystemCmd), (12 bytes).
    Removing stm32f10x_rcc.o(i.RCC_DeInit), (76 bytes).
    Removing stm32f10x_rcc.o(i.RCC_GetFlagStatus), (60 bytes).
    Removing stm32f10x_rcc.o(i.RCC_GetITStatus), (24 bytes).
    Removing stm32f10x_rcc.o(i.RCC_GetSYSCLKSource), (16 bytes).
    Removing stm32f10x_rcc.o(i.RCC_HCLKConfig), (24 bytes).
    Removing stm32f10x_rcc.o(i.RCC_HSEConfig), (76 bytes).
    Removing stm32f10x_rcc.o(i.RCC_HSICmd), (12 bytes).
    Removing stm32f10x_rcc.o(i.RCC_ITConfig), (36 bytes).
    Removing stm32f10x_rcc.o(i.RCC_LSEConfig), (52 bytes).
    Removing stm32f10x_rcc.o(i.RCC_LSICmd), (12 bytes).
    Removing stm32f10x_rcc.o(i.RCC_MCOConfig), (12 bytes).
    Removing stm32f10x_rcc.o(i.RCC_PCLK1Config), (24 bytes).
    Removing stm32f10x_rcc.o(i.RCC_PCLK2Config), (24 bytes).
    Removing stm32f10x_rcc.o(i.RCC_PLLCmd), (12 bytes).
    Removing stm32f10x_rcc.o(i.RCC_PLLConfig), (28 bytes).
    Removing stm32f10x_rcc.o(i.RCC_RTCCLKCmd), (12 bytes).
    Removing stm32f10x_rcc.o(i.RCC_RTCCLKConfig), (16 bytes).
    Removing stm32f10x_rcc.o(i.RCC_SYSCLKConfig), (24 bytes).
    Removing stm32f10x_rcc.o(i.RCC_USBCLKConfig), (12 bytes).
    Removing stm32f10x_rcc.o(i.RCC_WaitForHSEStartUp), (48 bytes).
    Removing stm32f10x_rtc.o(i.RTC_ClearFlag), (20 bytes).
    Removing stm32f10x_rtc.o(i.RTC_ClearITPendingBit), (20 bytes).
    Removing stm32f10x_rtc.o(i.RTC_EnterConfigMode), (20 bytes).
    Removing stm32f10x_rtc.o(i.RTC_ExitConfigMode), (20 bytes).
    Removing stm32f10x_rtc.o(i.RTC_GetCounter), (20 bytes).
    Removing stm32f10x_rtc.o(i.RTC_GetDivider), (24 bytes).
    Removing stm32f10x_rtc.o(i.RTC_GetFlagStatus), (24 bytes).
    Removing stm32f10x_rtc.o(i.RTC_GetITStatus), (36 bytes).
    Removing stm32f10x_rtc.o(i.RTC_ITConfig), (36 bytes).
    Removing stm32f10x_rtc.o(i.RTC_SetAlarm), (28 bytes).
    Removing stm32f10x_rtc.o(i.RTC_SetCounter), (28 bytes).
    Removing stm32f10x_rtc.o(i.RTC_SetPrescaler), (32 bytes).
    Removing stm32f10x_rtc.o(i.RTC_WaitForLastTask), (20 bytes).
    Removing stm32f10x_rtc.o(i.RTC_WaitForSynchro), (32 bytes).
    Removing stm32f10x_sdio.o(i.SDIO_CEATAITCmd), (16 bytes).
    Removing stm32f10x_sdio.o(i.SDIO_ClearFlag), (12 bytes).
    Removing stm32f10x_sdio.o(i.SDIO_ClearITPendingBit), (12 bytes).
    Removing stm32f10x_sdio.o(i.SDIO_ClockCmd), (12 bytes).
    Removing stm32f10x_sdio.o(i.SDIO_CmdStructInit), (14 bytes).
    Removing stm32f10x_sdio.o(i.SDIO_CommandCompletionCmd), (12 bytes).
    Removing stm32f10x_sdio.o(i.SDIO_DMACmd), (12 bytes).
    Removing stm32f10x_sdio.o(i.SDIO_DataConfig), (48 bytes).
    Removing stm32f10x_sdio.o(i.SDIO_DataStructInit), (20 bytes).
    Removing stm32f10x_sdio.o(i.SDIO_DeInit), (36 bytes).
    Removing stm32f10x_sdio.o(i.SDIO_GetCommandResponse), (12 bytes).
    Removing stm32f10x_sdio.o(i.SDIO_GetDataCounter), (12 bytes).
    Removing stm32f10x_sdio.o(i.SDIO_GetFIFOCount), (12 bytes).
    Removing stm32f10x_sdio.o(i.SDIO_GetFlagStatus), (24 bytes).
    Removing stm32f10x_sdio.o(i.SDIO_GetITStatus), (24 bytes).
    Removing stm32f10x_sdio.o(i.SDIO_GetPowerState), (16 bytes).
    Removing stm32f10x_sdio.o(i.SDIO_GetResponse), (16 bytes).
    Removing stm32f10x_sdio.o(i.SDIO_ITConfig), (32 bytes).
    Removing stm32f10x_sdio.o(i.SDIO_Init), (48 bytes).
    Removing stm32f10x_sdio.o(i.SDIO_ReadData), (12 bytes).
    Removing stm32f10x_sdio.o(i.SDIO_SendCEATACmd), (12 bytes).
    Removing stm32f10x_sdio.o(i.SDIO_SendCommand), (44 bytes).
    Removing stm32f10x_sdio.o(i.SDIO_SendSDIOSuspendCmd), (12 bytes).
    Removing stm32f10x_sdio.o(i.SDIO_SetPowerState), (28 bytes).
    Removing stm32f10x_sdio.o(i.SDIO_SetSDIOOperation), (12 bytes).
    Removing stm32f10x_sdio.o(i.SDIO_SetSDIOReadWaitMode), (12 bytes).
    Removing stm32f10x_sdio.o(i.SDIO_StartSDIOReadWait), (12 bytes).
    Removing stm32f10x_sdio.o(i.SDIO_StopSDIOReadWait), (12 bytes).
    Removing stm32f10x_sdio.o(i.SDIO_StructInit), (16 bytes).
    Removing stm32f10x_sdio.o(i.SDIO_WriteData), (12 bytes).
    Removing stm32f10x_spi.o(i.I2S_Cmd), (24 bytes).
    Removing stm32f10x_spi.o(i.I2S_Init), (228 bytes).
    Removing stm32f10x_spi.o(i.I2S_StructInit), (20 bytes).
    Removing stm32f10x_spi.o(i.SPI_BiDirectionalLineConfig), (28 bytes).
    Removing stm32f10x_spi.o(i.SPI_CalculateCRC), (24 bytes).
    Removing stm32f10x_spi.o(i.SPI_DataSizeConfig), (18 bytes).
    Removing stm32f10x_spi.o(i.SPI_GetCRC), (16 bytes).
    Removing stm32f10x_spi.o(i.SPI_GetCRCPolynomial), (6 bytes).
    Removing stm32f10x_spi.o(i.SPI_I2S_ClearFlag), (6 bytes).
    Removing stm32f10x_spi.o(i.SPI_I2S_ClearITPendingBit), (20 bytes).
    Removing stm32f10x_spi.o(i.SPI_I2S_DMACmd), (24 bytes).
    Removing stm32f10x_spi.o(i.SPI_I2S_DeInit), (88 bytes).
    Removing stm32f10x_spi.o(i.SPI_I2S_GetFlagStatus), (18 bytes).
    Removing stm32f10x_spi.o(i.SPI_I2S_GetITStatus), (52 bytes).
    Removing stm32f10x_spi.o(i.SPI_I2S_ITConfig), (36 bytes).
    Removing stm32f10x_spi.o(i.SPI_I2S_ReceiveData), (6 bytes).
    Removing stm32f10x_spi.o(i.SPI_I2S_SendData), (4 bytes).
    Removing stm32f10x_spi.o(i.SPI_NSSInternalSoftwareConfig), (30 bytes).
    Removing stm32f10x_spi.o(i.SPI_SSOutputCmd), (24 bytes).
    Removing stm32f10x_spi.o(i.SPI_StructInit), (24 bytes).
    Removing stm32f10x_spi.o(i.SPI_TransmitCRC), (10 bytes).
    Removing stm32f10x_tim.o(i.TI1_Config), (54 bytes).
    Removing stm32f10x_tim.o(i.TI2_Config), (68 bytes).
    Removing stm32f10x_tim.o(i.TI3_Config), (64 bytes).
    Removing stm32f10x_tim.o(i.TI4_Config), (68 bytes).
    Removing stm32f10x_tim.o(i.TIM_ARRPreloadConfig), (24 bytes).
    Removing stm32f10x_tim.o(i.TIM_BDTRConfig), (32 bytes).
    Removing stm32f10x_tim.o(i.TIM_BDTRStructInit), (18 bytes).
    Removing stm32f10x_tim.o(i.TIM_CCPreloadControl), (24 bytes).
    Removing stm32f10x_tim.o(i.TIM_CCxCmd), (34 bytes).
    Removing stm32f10x_tim.o(i.TIM_CCxNCmd), (34 bytes).
    Removing stm32f10x_tim.o(i.TIM_ClearFlag), (6 bytes).
    Removing stm32f10x_tim.o(i.TIM_ClearITPendingBit), (6 bytes).
    Removing stm32f10x_tim.o(i.TIM_ClearOC1Ref), (18 bytes).
    Removing stm32f10x_tim.o(i.TIM_ClearOC2Ref), (20 bytes).
    Removing stm32f10x_tim.o(i.TIM_ClearOC3Ref), (18 bytes).
    Removing stm32f10x_tim.o(i.TIM_ClearOC4Ref), (20 bytes).
    Removing stm32f10x_tim.o(i.TIM_CounterModeConfig), (18 bytes).
    Removing stm32f10x_tim.o(i.TIM_CtrlPWMOutputs), (30 bytes).
    Removing stm32f10x_tim.o(i.TIM_DMACmd), (24 bytes).
    Removing stm32f10x_tim.o(i.TIM_DMAConfig), (10 bytes).
    Removing stm32f10x_tim.o(i.TIM_DeInit), (224 bytes).
    Removing stm32f10x_tim.o(i.TIM_ETRClockMode1Config), (54 bytes).
    Removing stm32f10x_tim.o(i.TIM_ETRClockMode2Config), (32 bytes).
    Removing stm32f10x_tim.o(i.TIM_ETRConfig), (24 bytes).
    Removing stm32f10x_tim.o(i.TIM_EncoderInterfaceConfig), (62 bytes).
    Removing stm32f10x_tim.o(i.TIM_ForcedOC1Config), (18 bytes).
    Removing stm32f10x_tim.o(i.TIM_ForcedOC2Config), (22 bytes).
    Removing stm32f10x_tim.o(i.TIM_ForcedOC3Config), (18 bytes).
    Removing stm32f10x_tim.o(i.TIM_ForcedOC4Config), (22 bytes).
    Removing stm32f10x_tim.o(i.TIM_GenerateEvent), (4 bytes).
    Removing stm32f10x_tim.o(i.TIM_GetCapture1), (6 bytes).
    Removing stm32f10x_tim.o(i.TIM_GetCapture2), (6 bytes).
    Removing stm32f10x_tim.o(i.TIM_GetCapture3), (6 bytes).
    Removing stm32f10x_tim.o(i.TIM_GetCapture4), (8 bytes).
    Removing stm32f10x_tim.o(i.TIM_GetCounter), (6 bytes).
    Removing stm32f10x_tim.o(i.TIM_GetFlagStatus), (18 bytes).
    Removing stm32f10x_tim.o(i.TIM_GetITStatus), (34 bytes).
    Removing stm32f10x_tim.o(i.TIM_GetPrescaler), (6 bytes).
    Removing stm32f10x_tim.o(i.TIM_ICInit), (110 bytes).
    Removing stm32f10x_tim.o(i.TIM_ICStructInit), (18 bytes).
    Removing stm32f10x_tim.o(i.TIM_ITRxExternalClockConfig), (24 bytes).
    Removing stm32f10x_tim.o(i.TIM_InternalClockConfig), (12 bytes).
    Removing stm32f10x_tim.o(i.TIM_OC1FastConfig), (18 bytes).
    Removing stm32f10x_tim.o(i.TIM_OC1NPolarityConfig), (18 bytes).
    Removing stm32f10x_tim.o(i.TIM_OC1PolarityConfig), (18 bytes).
    Removing stm32f10x_tim.o(i.TIM_OC1PreloadConfig), (18 bytes).
    Removing stm32f10x_tim.o(i.TIM_OC2FastConfig), (22 bytes).
    Removing stm32f10x_tim.o(i.TIM_OC2Init), (148 bytes).
    Removing stm32f10x_tim.o(i.TIM_OC2NPolarityConfig), (22 bytes).
    Removing stm32f10x_tim.o(i.TIM_OC2PolarityConfig), (22 bytes).
    Removing stm32f10x_tim.o(i.TIM_OC2PreloadConfig), (22 bytes).
    Removing stm32f10x_tim.o(i.TIM_OC3FastConfig), (18 bytes).
    Removing stm32f10x_tim.o(i.TIM_OC3Init), (144 bytes).
    Removing stm32f10x_tim.o(i.TIM_OC3NPolarityConfig), (22 bytes).
    Removing stm32f10x_tim.o(i.TIM_OC3PolarityConfig), (22 bytes).
    Removing stm32f10x_tim.o(i.TIM_OC3PreloadConfig), (18 bytes).
    Removing stm32f10x_tim.o(i.TIM_OC4FastConfig), (22 bytes).
    Removing stm32f10x_tim.o(i.TIM_OC4Init), (108 bytes).
    Removing stm32f10x_tim.o(i.TIM_OC4PolarityConfig), (22 bytes).
    Removing stm32f10x_tim.o(i.TIM_OC4PreloadConfig), (22 bytes).
    Removing stm32f10x_tim.o(i.TIM_OCStructInit), (20 bytes).
    Removing stm32f10x_tim.o(i.TIM_PWMIConfig), (124 bytes).
    Removing stm32f10x_tim.o(i.TIM_PrescalerConfig), (6 bytes).
    Removing stm32f10x_tim.o(i.TIM_SelectCCDMA), (24 bytes).
    Removing stm32f10x_tim.o(i.TIM_SelectCOM), (24 bytes).
    Removing stm32f10x_tim.o(i.TIM_SelectHallSensor), (24 bytes).
    Removing stm32f10x_tim.o(i.TIM_SelectInputTrigger), (18 bytes).
    Removing stm32f10x_tim.o(i.TIM_SelectMasterSlaveMode), (18 bytes).
    Removing stm32f10x_tim.o(i.TIM_SelectOCxM), (86 bytes).
    Removing stm32f10x_tim.o(i.TIM_SelectOnePulseMode), (18 bytes).
    Removing stm32f10x_tim.o(i.TIM_SelectOutputTrigger), (18 bytes).
    Removing stm32f10x_tim.o(i.TIM_SelectSlaveMode), (18 bytes).
    Removing stm32f10x_tim.o(i.TIM_SetAutoreload), (4 bytes).
    Removing stm32f10x_tim.o(i.TIM_SetClockDivision), (14 bytes).
    Removing stm32f10x_tim.o(i.TIM_SetCompare1), (4 bytes).
    Removing stm32f10x_tim.o(i.TIM_SetCompare2), (4 bytes).
    Removing stm32f10x_tim.o(i.TIM_SetCompare3), (4 bytes).
    Removing stm32f10x_tim.o(i.TIM_SetCompare4), (6 bytes).
    Removing stm32f10x_tim.o(i.TIM_SetCounter), (4 bytes).
    Removing stm32f10x_tim.o(i.TIM_SetIC1Prescaler), (18 bytes).
    Removing stm32f10x_tim.o(i.TIM_SetIC2Prescaler), (22 bytes).
    Removing stm32f10x_tim.o(i.TIM_SetIC3Prescaler), (18 bytes).
    Removing stm32f10x_tim.o(i.TIM_SetIC4Prescaler), (22 bytes).
    Removing stm32f10x_tim.o(i.TIM_TIxExternalClockConfig), (62 bytes).
    Removing stm32f10x_tim.o(i.TIM_TimeBaseStructInit), (18 bytes).
    Removing stm32f10x_tim.o(i.TIM_UpdateDisableConfig), (24 bytes).
    Removing stm32f10x_tim.o(i.TIM_UpdateRequestConfig), (24 bytes).
    Removing stm32f10x_usart.o(i.USART_ClearFlag), (18 bytes).
    Removing stm32f10x_usart.o(i.USART_ClearITPendingBit), (30 bytes).
    Removing stm32f10x_usart.o(i.USART_ClockInit), (34 bytes).
    Removing stm32f10x_usart.o(i.USART_ClockStructInit), (12 bytes).
    Removing stm32f10x_usart.o(i.USART_DMACmd), (24 bytes).
    Removing stm32f10x_usart.o(i.USART_DeInit), (156 bytes).
    Removing stm32f10x_usart.o(i.USART_GetITStatus), (84 bytes).
    Removing stm32f10x_usart.o(i.USART_HalfDuplexCmd), (24 bytes).
    Removing stm32f10x_usart.o(i.USART_IrDACmd), (24 bytes).
    Removing stm32f10x_usart.o(i.USART_IrDAConfig), (18 bytes).
    Removing stm32f10x_usart.o(i.USART_LINBreakDetectLengthConfig), (18 bytes).
    Removing stm32f10x_usart.o(i.USART_LINCmd), (24 bytes).
    Removing stm32f10x_usart.o(i.USART_ReceiveData), (10 bytes).
    Removing stm32f10x_usart.o(i.USART_ReceiverWakeUpCmd), (24 bytes).
    Removing stm32f10x_usart.o(i.USART_SendBreak), (10 bytes).
    Removing stm32f10x_usart.o(i.USART_SetAddress), (18 bytes).
    Removing stm32f10x_usart.o(i.USART_SetGuardTime), (16 bytes).
    Removing stm32f10x_usart.o(i.USART_SetPrescaler), (16 bytes).
    Removing stm32f10x_usart.o(i.USART_SmartCardCmd), (24 bytes).
    Removing stm32f10x_usart.o(i.USART_SmartCardNACKCmd), (24 bytes).
    Removing stm32f10x_usart.o(i.USART_StructInit), (24 bytes).
    Removing stm32f10x_usart.o(i.USART_WakeUpConfig), (18 bytes).
    Removing stm32f10x_wwdg.o(i.WWDG_ClearFlag), (12 bytes).
    Removing stm32f10x_wwdg.o(i.WWDG_DeInit), (22 bytes).
    Removing stm32f10x_wwdg.o(i.WWDG_Enable), (16 bytes).
    Removing stm32f10x_wwdg.o(i.WWDG_EnableIT), (12 bytes).
    Removing stm32f10x_wwdg.o(i.WWDG_GetFlagStatus), (12 bytes).
    Removing stm32f10x_wwdg.o(i.WWDG_SetCounter), (16 bytes).
    Removing stm32f10x_wwdg.o(i.WWDG_SetPrescaler), (24 bytes).
    Removing stm32f10x_wwdg.o(i.WWDG_SetWindowValue), (28 bytes).
    Removing spi_cc1100.o(i.CC1100Init), (56 bytes).
    Removing spi_cc1100.o(i.CC1100Test), (36 bytes).
    Removing spi_cc1100.o(i.PacketReceive), (252 bytes).
    Removing spi_cc1100.o(i.PacketSend), (224 bytes).
    Removing spi_cc1100.o(i.RESET_CCxxx0), (48 bytes).
    Removing spi_cc1100.o(i.ReceiveData), (84 bytes).
    Removing spi_cc1100.o(i.SPI_CC1100_SendByte), (52 bytes).
    Removing spi_cc1100.o(i.SendData), (56 bytes).
    Removing spi_cc1100.o(i.halRfWriteRfSettings), (276 bytes).
    Removing spi_cc1100.o(i.halSpiReadBurstReg), (56 bytes).
    Removing spi_cc1100.o(i.halSpiReadReg), (44 bytes).
    Removing spi_cc1100.o(i.halSpiReadStatus), (44 bytes).
    Removing spi_cc1100.o(i.halSpiStrobe), (48 bytes).
    Removing spi_cc1100.o(i.halSpiWriteBurstReg), (56 bytes).
    Removing spi_cc1100.o(i.halSpiWriteReg), (40 bytes).
    Removing spi_cc1100.o(i.spi_delay), (12 bytes).
    Removing spi_cc1100.o(.bss), (308 bytes).
    Removing spi_cc1100.o(.data), (22 bytes).
    Removing mrfi.o(i.ConfigCC1100), (40 bytes).
    Removing mrfi.o(i.MRFI_DisableRxAddrFilter), (24 bytes).
    Removing mrfi.o(i.MRFI_RssiValidWait), (42 bytes).
    Removing bsp.o(i.ReleaseMrfiIsr), (28 bytes).
    Removing nwk.o(i.nwk_findAddressMatch), (52 bytes).
    Removing nwk.o(i.nwk_getFreeConnection), (60 bytes).
    Removing nwk.o(i.nwk_isJoined), (56 bytes).
    Removing nwk_api.o(i.SMPL_ReceiveNoFree), (66 bytes).
    Removing nwk_frame.o(i.AddPacketInComeQ), (108 bytes).
    Removing nwk_frame.o(i.FindSamePacket), (124 bytes).
    Removing nwk_frame.o(i.nwk_replayFrame), (12 bytes).
    Removing nwk_frame.o(i.nwk_retrieveFrameNoFree), (86 bytes).
    Removing nwk_frame.o(i.nwk_sendFrameEx), (52 bytes).
    Removing nwk_frame.o(i.replayFrame), (56 bytes).
    Removing nwk_frame.o(i.replayFrameEx), (62 bytes).
    Removing nwk_globals.o(i.nwk_disableRTSProcess), (12 bytes).
    Removing nwk_globals.o(i.nwk_enableRTSProcess), (12 bytes).
    Removing nwk_globals.o(i.nwk_getAPAddress), (32 bytes).
    Removing nwk_globals.o(i.nwk_setServerAddress), (16 bytes).
    Removing wers.o(i.CC1100_RF_Test), (172 bytes).
    Removing wers.o(i.CheckTimeOutEx), (84 bytes).
    Removing wers.o(i.F_485_BackOffTimeOut), (56 bytes).
    Removing wers.o(i.GetPlayload), (152 bytes).
    Removing wers.o(i.InitTransactionGUID), (62 bytes).
    Removing wers.o(i.PC485SemPend), (84 bytes).
    Removing wers.o(i.RestNotifyCode), (28 bytes).
    Removing wers.o(i.WERS485BridgeTask), (216 bytes).
    Removing wers.o(i.WERS485Poll), (108 bytes).
    Removing wers.o(i.WERS485SendDataAck), (60 bytes).
    Removing wers.o(i.WERS485SendResponsePoll), (30 bytes).
    Removing wers.o(i.WERS485SendTask), (396 bytes).
    Removing wers.o(i.WERSAPRestartNotifyPC), (100 bytes).
    Removing wers.o(i.WERSBoadcast), (92 bytes).
    Removing wers.o(i.WERSGenerate_485_GUID), (8 bytes).
    Removing wers.o(i.WERSGetACKResponse), (124 bytes).
    Removing wers.o(i.WERSGetDataFromPC), (388 bytes).
    Removing wers.o(i.WERSGetResponseForPC), (252 bytes).
    Removing wers.o(i.WERSGetSystemID), (12 bytes).
    Removing wers.o(i.WERSSendACK), (82 bytes).
    Removing wers.o(i.WERSSendRTS), (256 bytes).
    Removing wers.o(i.WERSSendResponseForAP), (122 bytes).
    Removing wers.o(i.WERSSetSystemID), (12 bytes).
    Removing wers.o(i.WERS_ClearTranscationQueu), (20 bytes).
    Removing wers.o(i.WERS_GetOldestTranscation), (82 bytes).
    Removing wers.o(i.WERS_InsertPacketToQ), (340 bytes).
    Removing wers.o(i.WERS_InsertPacketToQEx), (136 bytes).
    Removing wers.o(i.WERS_QInit), (20 bytes).
    Removing wers.o(i.WERS_QadjustOrder), (60 bytes).
    Removing wers.o(i.WERS_QfindByGUID), (100 bytes).
    Removing wers.o(i.WERS_QfindOldest), (96 bytes).
    Removing wers.o(i.WERS_QfindSlot), (120 bytes).
    Removing wers.o(i.WERS_ReSend_Reply), (92 bytes).
    Removing wers.o(i.WERS_ReceiveFromPC), (60 bytes).
    Removing wers.o(i.WERS_RemoveGUIDFromMap), (100 bytes).
    Removing wers.o(i.WERS_RemoveTimeOutGUIDFromMap), (76 bytes).
    Removing wers.o(i.WERS_RemoveTranscationFromQ), (44 bytes).
    Removing wers.o(i.WERS_RemoveTranscationFromQByGUID), (22 bytes).
    Removing wers.o(i.WERS_SaveGUIDToMap), (80 bytes).
    Removing wers.o(i.WERS_SaveReceivedTranscationInQ), (82 bytes).
    Removing wers.o(i.cal_crc8), (32 bytes).
    Removing rf_mem.o(i.rf_mem_realloc), (236 bytes).
    Removing rf_mem.o(i.rf_mem_reallocm), (46 bytes).
    Removing os_cpu_c.o(i.OSTaskDelHook), (2 bytes).
    Removing os_dbg.o(.constdata), (2 bytes).
    Removing cpu_a.o(.text), (22 bytes).
    Removing os_core.o(i.OSEventNameGet), (132 bytes).
    Removing os_core.o(i.OSIntEnter), (36 bytes).
    Removing os_core.o(i.OSSchedLock), (64 bytes).
    Removing os_core.o(i.OSSchedUnlock), (96 bytes).
    Removing os_core.o(i.OSVersion), (6 bytes).
    Removing os_core.o(i.OS_Dummy), (2 bytes).
    Removing os_core.o(i.OS_MemCopy), (20 bytes).
    Removing os_flag.o(i.OSFlagAccept), (268 bytes).
    Removing os_flag.o(i.OSFlagCreate), (108 bytes).
    Removing os_flag.o(i.OSFlagDel), (248 bytes).
    Removing os_flag.o(i.OSFlagNameGet), (112 bytes).
    Removing os_flag.o(i.OSFlagNameSet), (128 bytes).
    Removing os_flag.o(i.OSFlagPend), (616 bytes).
    Removing os_flag.o(i.OSFlagPendGetFlagsRdy), (32 bytes).
    Removing os_flag.o(i.OSFlagPost), (326 bytes).
    Removing os_flag.o(i.OSFlagQuery), (64 bytes).
    Removing os_flag.o(i.OS_FlagBlock), (164 bytes).
    Removing os_flag.o(i.OS_FlagTaskRdy), (104 bytes).
    Removing os_flag.o(i.OS_FlagUnlink), (36 bytes).
    Removing os_mbox.o(i.OSMboxAccept), (44 bytes).
    Removing os_mbox.o(i.OSMboxCreate), (88 bytes).
    Removing os_mbox.o(i.OSMboxDel), (244 bytes).
    Removing os_mbox.o(i.OSMboxPend), (280 bytes).
    Removing os_mbox.o(i.OSMboxPendAbort), (144 bytes).
    Removing os_mbox.o(i.OSMboxPost), (92 bytes).
    Removing os_mbox.o(i.OSMboxPostOpt), (132 bytes).
    Removing os_mbox.o(i.OSMboxQuery), (88 bytes).
    Removing os_mem.o(i.OSMemCreate), (172 bytes).
    Removing os_mem.o(i.OSMemGet), (78 bytes).
    Removing os_mem.o(i.OSMemNameGet), (92 bytes).
    Removing os_mem.o(i.OSMemNameSet), (108 bytes).
    Removing os_mem.o(i.OSMemPut), (66 bytes).
    Removing os_mem.o(i.OSMemQuery), (64 bytes).
    Removing os_mutex.o(i.OSMutexAccept), (164 bytes).
    Removing os_mutex.o(i.OSMutexCreate), (176 bytes).
    Removing os_mutex.o(i.OSMutexDel), (316 bytes).
    Removing os_mutex.o(i.OSMutexPend), (596 bytes).
    Removing os_mutex.o(i.OSMutexPost), (208 bytes).
    Removing os_mutex.o(i.OSMutexQuery), (124 bytes).
    Removing os_mutex.o(i.OSMutex_RdyAtPrio), (124 bytes).
    Removing os_q.o(i.OSQDel), (284 bytes).
    Removing os_q.o(i.OSQFlush), (52 bytes).
    Removing os_q.o(i.OSQPendAbort), (144 bytes).
    Removing os_q.o(i.OSQPostFront), (122 bytes).
    Removing os_q.o(i.OSQPostOpt), (188 bytes).
    Removing os_q.o(i.OSQQuery), (112 bytes).
    Removing os_sem.o(i.OSSemAccept), (50 bytes).
    Removing os_sem.o(i.OSSemDel), (244 bytes).
    Removing os_sem.o(i.OSSemPendAbort), (144 bytes).
    Removing os_sem.o(i.OSSemQuery), (94 bytes).
    Removing os_sem.o(i.OSSemSet), (80 bytes).
    Removing os_task.o(i.OSTaskChangePrio), (360 bytes).
    Removing os_task.o(i.OSTaskDel), (388 bytes).
    Removing os_task.o(i.OSTaskDelReq), (120 bytes).
    Removing os_task.o(i.OSTaskNameGet), (160 bytes).
    Removing os_task.o(i.OSTaskQuery), (108 bytes).
    Removing os_task.o(i.OSTaskResume), (184 bytes).
    Removing os_task.o(i.OSTaskSuspend), (188 bytes).
    Removing os_time.o(i.OSTimeDlyHMSM), (164 bytes).
    Removing os_time.o(i.OSTimeDlyResume), (188 bytes).
    Removing os_time.o(i.OSTimeGet), (28 bytes).
    Removing os_time.o(i.OSTimeSet), (28 bytes).
    Removing os_tmr.o(i.OSTmrCreate), (204 bytes).
    Removing os_tmr.o(i.OSTmrDel), (148 bytes).
    Removing os_tmr.o(i.OSTmrNameGet), (148 bytes).
    Removing os_tmr.o(i.OSTmrRemainGet), (188 bytes).
    Removing os_tmr.o(i.OSTmrStart), (152 bytes).
    Removing os_tmr.o(i.OSTmrStateGet), (108 bytes).
    Removing os_tmr.o(i.OSTmrStop), (204 bytes).
    Removing os_tmr.o(i.OSTmr_Alloc), (64 bytes).
    Removing os_tmr.o(i.OSTmr_Free), (80 bytes).
    Removing dadd.o(.text), (332 bytes).
    Removing dmul.o(.text), (224 bytes).
    Removing ddiv.o(.text), (222 bytes).
    Removing dfixul.o(.text), (48 bytes).
    Removing cdrcmple.o(.text), (40 bytes).
    Removing depilogue.o(.text), (190 bytes).

593 unused section(s) (total 59788 bytes) removed from the image.

==============================================================================

Image Symbol Table

    Local Symbols

    Symbol Name                              Value     Ov Type        Size  Object(Section)

    ../../../cmprslib/zerorunl2.c            0x00000000   Number         0  __dczerorl2.o ABSOLUTE
    ../../microlib/division.c                0x00000000   Number         0  uldiv.o ABSOLUTE
    ../../microlib/division.c                0x00000000   Number         0  uidiv.o ABSOLUTE
    ../../microlib/fpadd.c                   0x00000000   Number         0  dadd.o ABSOLUTE
    ../../microlib/fpdiv.c                   0x00000000   Number         0  ddiv.o ABSOLUTE
    ../../microlib/fpepilogue.c              0x00000000   Number         0  depilogue.o ABSOLUTE
    ../../microlib/fpfix.c                   0x00000000   Number         0  dfixul.o ABSOLUTE
    ../../microlib/fpmul.c                   0x00000000   Number         0  dmul.o ABSOLUTE
    ../../microlib/init/entry.s              0x00000000   Number         0  entry8.o ABSOLUTE
    ../../microlib/init/entry.s              0x00000000   Number         0  entry5.o ABSOLUTE
    ../../microlib/init/entry.s              0x00000000   Number         0  entry2.o ABSOLUTE
    ../../microlib/init/entry.s              0x00000000   Number         0  entry.o ABSOLUTE
    ../../microlib/init/entry.s              0x00000000   Number         0  entry7b.o ABSOLUTE
    ../../microlib/init/entry.s              0x00000000   Number         0  entry7a.o ABSOLUTE
    ../../microlib/longlong.c                0x00000000   Number         0  llshl.o ABSOLUTE
    ../../microlib/longlong.c                0x00000000   Number         0  llushr.o ABSOLUTE
    ../../microlib/longlong.c                0x00000000   Number         0  llsshr.o ABSOLUTE
    ../../microlib/printf/printf.c           0x00000000   Number         0  printf8.o ABSOLUTE
    ../../microlib/printf/printf.c           0x00000000   Number         0  printf7.o ABSOLUTE
    ../../microlib/printf/printf.c           0x00000000   Number         0  printf1.o ABSOLUTE
    ../../microlib/printf/printf.c           0x00000000   Number         0  printf6.o ABSOLUTE
    ../../microlib/printf/printf.c           0x00000000   Number         0  printf5.o ABSOLUTE
    ../../microlib/printf/printf.c           0x00000000   Number         0  printf4.o ABSOLUTE
    ../../microlib/printf/printf.c           0x00000000   Number         0  printf3.o ABSOLUTE
    ../../microlib/printf/printf.c           0x00000000   Number         0  printf0.o ABSOLUTE
    ../../microlib/printf/printf.c           0x00000000   Number         0  printfb.o ABSOLUTE
    ../../microlib/printf/printf.c           0x00000000   Number         0  printf2.o ABSOLUTE
    ../../microlib/printf/printf.c           0x00000000   Number         0  printfa.o ABSOLUTE
    ../../microlib/printf/stubs.s            0x00000000   Number         0  stubs.o ABSOLUTE
    ../../microlib/stdio/streams.c           0x00000000   Number         0  stdout.o ABSOLUTE
    ../../microlib/string/memcmp.c           0x00000000   Number         0  memcmp.o ABSOLUTE
    ../../microlib/string/memcpy.c           0x00000000   Number         0  memcpy.o ABSOLUTE
    ../../microlib/string/memcpy.c           0x00000000   Number         0  memcpyc.o ABSOLUTE
    ../../microlib/string/memcpy.c           0x00000000   Number         0  memcpya.o ABSOLUTE
    ../../microlib/string/memcpy.c           0x00000000   Number         0  memcpyb.o ABSOLUTE
    ../../microlib/string/memset.c           0x00000000   Number         0  memseta.o ABSOLUTE
    ../../microlib/stubs.s                   0x00000000   Number         0  iusefp.o ABSOLUTE
    ..\APP\dtimer.c                          0x00000000   Number         0  dtimer.o ABSOLUTE
    ..\APP\flash.c                           0x00000000   Number         0  flash.o ABSOLUTE
    ..\APP\main.c                            0x00000000   Number         0  main.o ABSOLUTE
    ..\APP\stm32f10x_it.c                    0x00000000   Number         0  stm32f10x_it.o ABSOLUTE
    ..\APP\uart.c                            0x00000000   Number         0  uart.o ABSOLUTE
    ..\Board\core_cm3.c                      0x00000000   Number         0  core_cm3.o ABSOLUTE
    ..\Board\stm32_eval.c                    0x00000000   Number         0  stm32_eval.o ABSOLUTE
    ..\Board\system_stm32f10x.c              0x00000000   Number         0  system_stm32f10x.o ABSOLUTE
    ..\FWLib\src\misc.c                      0x00000000   Number         0  misc.o ABSOLUTE
    ..\FWLib\src\stm32f10x_adc.c             0x00000000   Number         0  stm32f10x_adc.o ABSOLUTE
    ..\FWLib\src\stm32f10x_bkp.c             0x00000000   Number         0  stm32f10x_bkp.o ABSOLUTE
    ..\FWLib\src\stm32f10x_can.c             0x00000000   Number         0  stm32f10x_can.o ABSOLUTE
    ..\FWLib\src\stm32f10x_crc.c             0x00000000   Number         0  stm32f10x_crc.o ABSOLUTE
    ..\FWLib\src\stm32f10x_dac.c             0x00000000   Number         0  stm32f10x_dac.o ABSOLUTE
    ..\FWLib\src\stm32f10x_dbgmcu.c          0x00000000   Number         0  stm32f10x_dbgmcu.o ABSOLUTE
    ..\FWLib\src\stm32f10x_dma.c             0x00000000   Number         0  stm32f10x_dma.o ABSOLUTE
    ..\FWLib\src\stm32f10x_exti.c            0x00000000   Number         0  stm32f10x_exti.o ABSOLUTE
    ..\FWLib\src\stm32f10x_flash.c           0x00000000   Number         0  stm32f10x_flash.o ABSOLUTE
    ..\FWLib\src\stm32f10x_fsmc.c            0x00000000   Number         0  stm32f10x_fsmc.o ABSOLUTE
    ..\FWLib\src\stm32f10x_gpio.c            0x00000000   Number         0  stm32f10x_gpio.o ABSOLUTE
    ..\FWLib\src\stm32f10x_i2c.c             0x00000000   Number         0  stm32f10x_i2c.o ABSOLUTE
    ..\FWLib\src\stm32f10x_iwdg.c            0x00000000   Number         0  stm32f10x_iwdg.o ABSOLUTE
    ..\FWLib\src\stm32f10x_pwr.c             0x00000000   Number         0  stm32f10x_pwr.o ABSOLUTE
    ..\FWLib\src\stm32f10x_rcc.c             0x00000000   Number         0  stm32f10x_rcc.o ABSOLUTE
    ..\FWLib\src\stm32f10x_rtc.c             0x00000000   Number         0  stm32f10x_rtc.o ABSOLUTE
    ..\FWLib\src\stm32f10x_sdio.c            0x00000000   Number         0  stm32f10x_sdio.o ABSOLUTE
    ..\FWLib\src\stm32f10x_spi.c             0x00000000   Number         0  stm32f10x_spi.o ABSOLUTE
    ..\FWLib\src\stm32f10x_tim.c             0x00000000   Number         0  stm32f10x_tim.o ABSOLUTE
    ..\FWLib\src\stm32f10x_usart.c           0x00000000   Number         0  stm32f10x_usart.o ABSOLUTE
    ..\FWLib\src\stm32f10x_wwdg.c            0x00000000   Number         0  stm32f10x_wwdg.o ABSOLUTE
    ..\RF\app\WERS.c                         0x00000000   Number         0  wers.o ABSOLUTE
    ..\RF\bsp\bsp.c                          0x00000000   Number         0  bsp.o ABSOLUTE
    ..\RF\mrfi\mrfi.c                        0x00000000   Number         0  mrfi.o ABSOLUTE
    ..\RF\nwk\nwk.c                          0x00000000   Number         0  nwk.o ABSOLUTE
    ..\RF\nwk\nwk_QMgmt.c                    0x00000000   Number         0  nwk_qmgmt.o ABSOLUTE
    ..\RF\nwk\nwk_api.c                      0x00000000   Number         0  nwk_api.o ABSOLUTE
    ..\RF\nwk\nwk_frame.c                    0x00000000   Number         0  nwk_frame.o ABSOLUTE
    ..\RF\nwk\nwk_globals.c                  0x00000000   Number         0  nwk_globals.o ABSOLUTE
    ..\RF\nwkapp\nwk_freq.c                  0x00000000   Number         0  nwk_freq.o ABSOLUTE
    ..\RF\nwkapp\nwk_ioctl.c                 0x00000000   Number         0  nwk_ioctl.o ABSOLUTE
    ..\RF\nwkapp\nwk_join.c                  0x00000000   Number         0  nwk_join.o ABSOLUTE
    ..\RF\nwkapp\nwk_link.c                  0x00000000   Number         0  nwk_link.o ABSOLUTE
    ..\RF\nwkapp\nwk_mgmt.c                  0x00000000   Number         0  nwk_mgmt.o ABSOLUTE
    ..\RF\nwkapp\nwk_ping.c                  0x00000000   Number         0  nwk_ping.o ABSOLUTE
    ..\RF\nwkapp\nwk_security.c              0x00000000   Number         0  nwk_security.o ABSOLUTE
    ..\RF\rf_mem.c                           0x00000000   Number         0  rf_mem.o ABSOLUTE
    ..\RF\rf_wd.c                            0x00000000   Number         0  rf_wd.o ABSOLUTE
    ..\RF\spi_cc1100.c                       0x00000000   Number         0  spi_cc1100.o ABSOLUTE
    ..\Startup\startup_stm32f10x_hd.s        0x00000000   Number         0  startup_stm32f10x_hd.o ABSOLUTE
    ..\\APP\\main.c                          0x00000000   Number         0  main.o ABSOLUTE
    ..\\Board\\core_cm3.c                    0x00000000   Number         0  core_cm3.o ABSOLUTE
    ..\uCOS-II\Ports\os_cpu_a.asm            0x00000000   Number         0  os_cpu_a.o ABSOLUTE
    ..\uCOS-II\Ports\os_cpu_c.c              0x00000000   Number         0  os_cpu_c.o ABSOLUTE
    ..\uCOS-II\Ports\os_dbg.c                0x00000000   Number         0  os_dbg.o ABSOLUTE
    ..\uCOS-II\Source\os_core.c              0x00000000   Number         0  os_core.o ABSOLUTE
    ..\uCOS-II\Source\os_flag.c              0x00000000   Number         0  os_flag.o ABSOLUTE
    ..\uCOS-II\Source\os_mbox.c              0x00000000   Number         0  os_mbox.o ABSOLUTE
    ..\uCOS-II\Source\os_mem.c               0x00000000   Number         0  os_mem.o ABSOLUTE
    ..\uCOS-II\Source\os_mutex.c             0x00000000   Number         0  os_mutex.o ABSOLUTE
    ..\uCOS-II\Source\os_q.c                 0x00000000   Number         0  os_q.o ABSOLUTE
    ..\uCOS-II\Source\os_sem.c               0x00000000   Number         0  os_sem.o ABSOLUTE
    ..\uCOS-II\Source\os_task.c              0x00000000   Number         0  os_task.o ABSOLUTE
    ..\uCOS-II\Source\os_time.c              0x00000000   Number         0  os_time.o ABSOLUTE
    ..\uCOS-II\Source\os_tmr.c               0x00000000   Number         0  os_tmr.o ABSOLUTE
    ..\uCOS-II\uC-CPU\cpu_a.asm              0x00000000   Number         0  cpu_a.o ABSOLUTE
    cdrcmple.s                               0x00000000   Number         0  cdrcmple.o ABSOLUTE
    dc.s                                     0x00000000   Number         0  dc.o ABSOLUTE
    handlers.s                               0x00000000   Number         0  handlers.o ABSOLUTE
    init.s                                   0x00000000   Number         0  init.o ABSOLUTE
    RESET                                    0x08000000   Section      304  startup_stm32f10x_hd.o(RESET)
    .ARM.Collect$$$$00000000                 0x08000130   Section        0  entry.o(.ARM.Collect$$$$00000000)
    .ARM.Collect$$$$00000001                 0x08000130   Section        4  entry2.o(.ARM.Collect$$$$00000001)
    .ARM.Collect$$$$00000004                 0x08000134   Section        4  entry5.o(.ARM.Collect$$$$00000004)
    .ARM.Collect$$$$00000008                 0x08000138   Section        0  entry7b.o(.ARM.Collect$$$$00000008)
    .ARM.Collect$$$$00000009                 0x08000138   Section        8  entry8.o(.ARM.Collect$$$$00000009)
    .ARM.Collect$$$$00002712                 0x08000140   Section        4  entry2.o(.ARM.Collect$$$$00002712)
    __lit__00000000                          0x08000140   Data           4  entry2.o(.ARM.Collect$$$$00002712)
    .emb_text                                0x08000144   Section       24  main.o(.emb_text)
    .text                                    0x0800015c   Section       48  startup_stm32f10x_hd.o(.text)
    .text                                    0x0800018c   Section      176  os_cpu_a.o(.text)
    .text                                    0x0800023c   Section        0  memcpy.o(.text)
    .text                                    0x08000264   Section        0  memseta.o(.text)
    .text                                    0x0800028a   Section        0  memcmp.o(.text)
    .text                                    0x080002a4   Section        0  uldiv.o(.text)
    .text                                    0x08000308   Section       36  init.o(.text)
    .text                                    0x0800032c   Section        0  llshl.o(.text)
    .text                                    0x0800034a   Section        0  llushr.o(.text)
    .text                                    0x0800036a   Section        0  __dczerorl2.o(.text)
    i.AddNewTransactionToQue                 0x080003c8   Section        0  wers.o(i.AddNewTransactionToQue)
    i.AppTaskStart                           0x08000460   Section        0  main.o(i.AppTaskStart)
    AppTaskStart                             0x08000461   Thumb Code   166  main.o(i.AppTaskStart)
    i.BSP_InitForCC1100                      0x08000540   Section        0  bsp.o(i.BSP_InitForCC1100)
    i.BackOffTimeOut                         0x08000600   Section        0  wers.o(i.BackOffTimeOut)
    BackOffTimeOut                           0x08000601   Thumb Code    52  wers.o(i.BackOffTimeOut)
    i.BackOffTimeOutEx                       0x08000638   Section        0  wers.o(i.BackOffTimeOutEx)
    BackOffTimeOutEx                         0x08000639   Thumb Code    60  wers.o(i.BackOffTimeOutEx)
    i.BusFault_Handler                       0x08000678   Section        0  stm32f10x_it.o(i.BusFault_Handler)
    i.ButtonInit                             0x0800067c   Section        0  main.o(i.ButtonInit)
    i.CheckTimeOut                           0x080006ac   Section        0  wers.o(i.CheckTimeOut)
    CheckTimeOut                             0x080006ad   Thumb Code    54  wers.o(i.CheckTimeOut)
    i.CreateTimerEx                          0x080006e8   Section        0  dtimer.o(i.CreateTimerEx)
    i.DTimerInit                             0x08000744   Section        0  dtimer.o(i.DTimerInit)
    i.DebugMon_Handler                       0x08000818   Section        0  stm32f10x_it.o(i.DebugMon_Handler)
    i.DeleteTimer                            0x0800081c   Section        0  dtimer.o(i.DeleteTimer)
    i.EXTI0_IRQHandler                       0x08000830   Section        0  bsp.o(i.EXTI0_IRQHandler)
    i.EXTI1_IRQHandler                       0x0800089c   Section        0  stm32f10x_it.o(i.EXTI1_IRQHandler)
    i.EXTI_ClearITPendingBit                 0x08000900   Section        0  stm32f10x_exti.o(i.EXTI_ClearITPendingBit)
    i.EXTI_GetITStatus                       0x0800090c   Section        0  stm32f10x_exti.o(i.EXTI_GetITStatus)
    i.EXTI_Init                              0x08000934   Section        0  stm32f10x_exti.o(i.EXTI_Init)
    i.FLASH_GetStatus                        0x080009c8   Section        0  stm32f10x_flash.o(i.FLASH_GetStatus)
    i.FLASH_WaitForLastOperation             0x08000a00   Section        0  stm32f10x_flash.o(i.FLASH_WaitForLastOperation)
    i.Flash_ErasePage                        0x08000a2c   Section        0  flash.o(i.Flash_ErasePage)
    Flash_ErasePage                          0x08000a2d   Thumb Code    82  flash.o(i.Flash_ErasePage)
    i.Flash_Read                             0x08000a84   Section        0  flash.o(i.Flash_Read)
    i.Flash_Write                            0x08000aa0   Section        0  flash.o(i.Flash_Write)
    i.Flash_WritePage                        0x08000d84   Section        0  flash.o(i.Flash_WritePage)
    Flash_WritePage                          0x08000d85   Thumb Code   130  flash.o(i.Flash_WritePage)
    i.GPIO_EXTILineConfig                    0x08000e10   Section        0  stm32f10x_gpio.o(i.GPIO_EXTILineConfig)
    i.GPIO_Init                              0x08000e50   Section        0  stm32f10x_gpio.o(i.GPIO_Init)
    i.HardFault_Handler                      0x08000f62   Section        0  stm32f10x_it.o(i.HardFault_Handler)
    i.IWDG_Enable                            0x08000f68   Section        0  stm32f10x_iwdg.o(i.IWDG_Enable)
    i.IWDG_ReloadCounter                     0x08000f78   Section        0  stm32f10x_iwdg.o(i.IWDG_ReloadCounter)
    i.IWDG_SetPrescaler                      0x08000f88   Section        0  stm32f10x_iwdg.o(i.IWDG_SetPrescaler)
    i.IWDG_SetReload                         0x08000f94   Section        0  stm32f10x_iwdg.o(i.IWDG_SetReload)
    i.IWDG_WriteAccessCmd                    0x08000fa0   Section        0  stm32f10x_iwdg.o(i.IWDG_WriteAccessCmd)
    i.MILD_max                               0x08000fac   Section        0  wers.o(i.MILD_max)
    i.MILD_min                               0x08000fcc   Section        0  wers.o(i.MILD_min)
    i.MRFI_CheckSameSystemID                 0x08000ff4   Section        0  mrfi.o(i.MRFI_CheckSameSystemID)
    i.MRFI_DelayMs                           0x0800101c   Section        0  mrfi.o(i.MRFI_DelayMs)
    i.MRFI_EnableRxAddrFilter                0x08001028   Section        0  mrfi.o(i.MRFI_EnableRxAddrFilter)
    i.MRFI_GetRadioState                     0x0800107c   Section        0  mrfi.o(i.MRFI_GetRadioState)
    i.MRFI_GpioIsr                           0x08001088   Section        0  mrfi.o(i.MRFI_GpioIsr)
    i.MRFI_Init                              0x080010b8   Section        0  mrfi.o(i.MRFI_Init)
    i.MRFI_RandomByte                        0x0800134c   Section        0  mrfi.o(i.MRFI_RandomByte)
    i.MRFI_Receive                           0x08001364   Section        0  mrfi.o(i.MRFI_Receive)
    i.MRFI_Rssi                              0x08001378   Section        0  mrfi.o(i.MRFI_Rssi)
    i.MRFI_RxAddrIsFiltered                  0x080013f0   Section        0  mrfi.o(i.MRFI_RxAddrIsFiltered)
    i.MRFI_RxCompleteISR                     0x08001444   Section        0  nwk_frame.o(i.MRFI_RxCompleteISR)
    i.MRFI_RxIdle                            0x08001490   Section        0  mrfi.o(i.MRFI_RxIdle)
    i.MRFI_RxOn                              0x080014e4   Section        0  mrfi.o(i.MRFI_RxOn)
    i.MRFI_SetLogicalChannel                 0x08001538   Section        0  mrfi.o(i.MRFI_SetLogicalChannel)
    i.MRFI_SetRxAddrFilter                   0x08001594   Section        0  mrfi.o(i.MRFI_SetRxAddrFilter)
    i.MRFI_Sleep                             0x080015e4   Section        0  mrfi.o(i.MRFI_Sleep)
    i.MRFI_Transmit                          0x08001610   Section        0  mrfi.o(i.MRFI_Transmit)
    i.MRFI_WakeUp                            0x080017a4   Section        0  mrfi.o(i.MRFI_WakeUp)
    i.MemManage_Handler                      0x0800180c   Section        0  stm32f10x_it.o(i.MemManage_Handler)
    i.Mrfi_CalculateRssi                     0x08001810   Section        0  mrfi.o(i.Mrfi_CalculateRssi)
    Mrfi_CalculateRssi                       0x08001811   Thumb Code    48  mrfi.o(i.Mrfi_CalculateRssi)
    i.Mrfi_DelayUsec                         0x08001840   Section        0  mrfi.o(i.Mrfi_DelayUsec)
    Mrfi_DelayUsec                           0x08001841   Thumb Code    24  mrfi.o(i.Mrfi_DelayUsec)
    i.Mrfi_RandomBackoffDelay                0x08001858   Section        0  mrfi.o(i.Mrfi_RandomBackoffDelay)
    Mrfi_RandomBackoffDelay                  0x08001859   Thumb Code    34  mrfi.o(i.Mrfi_RandomBackoffDelay)
    i.Mrfi_RxModeOff                         0x08001880   Section        0  mrfi.o(i.Mrfi_RxModeOff)
    Mrfi_RxModeOff                           0x08001881   Thumb Code    44  mrfi.o(i.Mrfi_RxModeOff)
    i.Mrfi_RxModeOn                          0x080018b4   Section        0  mrfi.o(i.Mrfi_RxModeOn)
    Mrfi_RxModeOn                            0x080018b5   Thumb Code    38  mrfi.o(i.Mrfi_RxModeOn)
    i.Mrfi_SyncPinRxIsr                      0x080018e0   Section        0  mrfi.o(i.Mrfi_SyncPinRxIsr)
    Mrfi_SyncPinRxIsr                        0x080018e1   Thumb Code   282  mrfi.o(i.Mrfi_SyncPinRxIsr)
    i.NMI_Handler                            0x08001a2c   Section        0  stm32f10x_it.o(i.NMI_Handler)
    i.NVIC_Init                              0x08001a30   Section        0  misc.o(i.NVIC_Init)
    i.OSEventNameSet                         0x08001aa4   Section        0  os_core.o(i.OSEventNameSet)
    i.OSInit                                 0x08001b34   Section        0  os_core.o(i.OSInit)
    i.OSInitHookBegin                        0x08001b68   Section        0  os_cpu_c.o(i.OSInitHookBegin)
    i.OSInitHookEnd                          0x08001b74   Section        0  os_cpu_c.o(i.OSInitHookEnd)
    i.OSIntExit                              0x08001b78   Section        0  os_core.o(i.OSIntExit)
    i.OSQAccept                              0x08001c58   Section        0  os_q.o(i.OSQAccept)
    i.OSQCreate                              0x08001cc4   Section        0  os_q.o(i.OSQCreate)
    i.OSQPend                                0x08001d68   Section        0  os_q.o(i.OSQPend)
    i.OSQPost                                0x08001e9c   Section        0  os_q.o(i.OSQPost)
    i.OSSemCreate                            0x08001f14   Section        0  os_sem.o(i.OSSemCreate)
    i.OSSemPend                              0x08001f6c   Section        0  os_sem.o(i.OSSemPend)
    i.OSSemPost                              0x08002064   Section        0  os_sem.o(i.OSSemPost)
    i.OSStart                                0x080020c4   Section        0  os_core.o(i.OSStart)
    i.OSStatInit                             0x0800210c   Section        0  os_core.o(i.OSStatInit)
    i.OSTCBInitHook                          0x08002158   Section        0  os_cpu_c.o(i.OSTCBInitHook)
    i.OSTaskCreate                           0x0800215c   Section        0  os_task.o(i.OSTaskCreate)
    i.OSTaskCreateExt                        0x08002208   Section        0  os_task.o(i.OSTaskCreateExt)
    i.OSTaskCreateHook                       0x080022c8   Section        0  os_cpu_c.o(i.OSTaskCreateHook)
    i.OSTaskIdleHook                         0x080022ca   Section        0  os_cpu_c.o(i.OSTaskIdleHook)
    i.OSTaskNameSet                          0x080022cc   Section        0  os_task.o(i.OSTaskNameSet)
    i.OSTaskStatHook                         0x08002378   Section        0  os_cpu_c.o(i.OSTaskStatHook)
    i.OSTaskStkChk                           0x0800237c   Section        0  os_task.o(i.OSTaskStkChk)
    i.OSTaskStkInit                          0x0800241c   Section        0  os_cpu_c.o(i.OSTaskStkInit)
    i.OSTaskSwHook                           0x080024b6   Section        0  os_cpu_c.o(i.OSTaskSwHook)
    i.OSTimeDly                              0x080024b8   Section        0  os_time.o(i.OSTimeDly)
    i.OSTimeTick                             0x08002528   Section        0  os_core.o(i.OSTimeTick)
    i.OSTimeTickHook                         0x0800261c   Section        0  os_cpu_c.o(i.OSTimeTickHook)
    i.OSTmrSignal                            0x08002640   Section        0  os_tmr.o(i.OSTmrSignal)
    i.OSTmr_Init                             0x08002654   Section        0  os_tmr.o(i.OSTmr_Init)
    i.OSTmr_InitTask                         0x08002730   Section        0  os_tmr.o(i.OSTmr_InitTask)
    OSTmr_InitTask                           0x08002731   Thumb Code    52  os_tmr.o(i.OSTmr_InitTask)
    i.OSTmr_Link                             0x0800277c   Section        0  os_tmr.o(i.OSTmr_Link)
    OSTmr_Link                               0x0800277d   Thumb Code   100  os_tmr.o(i.OSTmr_Link)
    i.OSTmr_Lock                             0x080027e8   Section        0  os_tmr.o(i.OSTmr_Lock)
    OSTmr_Lock                               0x080027e9   Thumb Code    16  os_tmr.o(i.OSTmr_Lock)
    i.OSTmr_Task                             0x080027fc   Section        0  os_tmr.o(i.OSTmr_Task)
    OSTmr_Task                               0x080027fd   Thumb Code   112  os_tmr.o(i.OSTmr_Task)
    i.OSTmr_Unlink                           0x08002878   Section        0  os_tmr.o(i.OSTmr_Unlink)
    OSTmr_Unlink                             0x08002879   Thumb Code    62  os_tmr.o(i.OSTmr_Unlink)
    i.OSTmr_Unlock                           0x080028bc   Section        0  os_tmr.o(i.OSTmr_Unlock)
    OSTmr_Unlock                             0x080028bd   Thumb Code    12  os_tmr.o(i.OSTmr_Unlock)
    i.OS_EventTOAbort                        0x080028cc   Section        0  os_core.o(i.OS_EventTOAbort)
    i.OS_EventTaskRdy                        0x0800291c   Section        0  os_core.o(i.OS_EventTaskRdy)
    i.OS_EventTaskWait                       0x080029f8   Section        0  os_core.o(i.OS_EventTaskWait)
    i.OS_EventWaitListInit                   0x08002a74   Section        0  os_core.o(i.OS_EventWaitListInit)
    i.OS_FlagInit                            0x08002a90   Section        0  os_flag.o(i.OS_FlagInit)
    i.OS_InitEventList                       0x08002adc   Section        0  os_core.o(i.OS_InitEventList)
    OS_InitEventList                         0x08002add   Thumb Code    70  os_core.o(i.OS_InitEventList)
    i.OS_InitMisc                            0x08002b2c   Section        0  os_core.o(i.OS_InitMisc)
    OS_InitMisc                              0x08002b2d   Thumb Code    44  os_core.o(i.OS_InitMisc)
    i.OS_InitRdyList                         0x08002b80   Section        0  os_core.o(i.OS_InitRdyList)
    OS_InitRdyList                           0x08002b81   Thumb Code    46  os_core.o(i.OS_InitRdyList)
    i.OS_InitTCBList                         0x08002bc8   Section        0  os_core.o(i.OS_InitTCBList)
    OS_InitTCBList                           0x08002bc9   Thumb Code    86  os_core.o(i.OS_InitTCBList)
    i.OS_InitTaskIdle                        0x08002c30   Section        0  os_core.o(i.OS_InitTaskIdle)
    OS_InitTaskIdle                          0x08002c31   Thumb Code    52  os_core.o(i.OS_InitTaskIdle)
    i.OS_InitTaskStat                        0x08002c7c   Section        0  os_core.o(i.OS_InitTaskStat)
    OS_InitTaskStat                          0x08002c7d   Thumb Code    52  os_core.o(i.OS_InitTaskStat)
    i.OS_MemClr                              0x08002cc8   Section        0  os_core.o(i.OS_MemClr)
    i.OS_MemInit                             0x08002cdc   Section        0  os_mem.o(i.OS_MemInit)
    i.OS_QInit                               0x08002d28   Section        0  os_q.o(i.OS_QInit)
    i.OS_Sched                               0x08002d60   Section        0  os_core.o(i.OS_Sched)
    i.OS_SchedNew                            0x08002e20   Section        0  os_core.o(i.OS_SchedNew)
    OS_SchedNew                              0x08002e21   Thumb Code    26  os_core.o(i.OS_SchedNew)
    i.OS_StrCopy                             0x08002e4c   Section        0  os_core.o(i.OS_StrCopy)
    i.OS_StrLen                              0x08002e68   Section        0  os_core.o(i.OS_StrLen)
    i.OS_TCBInit                             0x08002e7c   Section        0  os_core.o(i.OS_TCBInit)
    i.OS_TaskIdle                            0x08002fa8   Section        0  os_core.o(i.OS_TaskIdle)
    i.OS_TaskStat                            0x08002fcc   Section        0  os_core.o(i.OS_TaskStat)
    i.OS_TaskStatStkChk                      0x0800305c   Section        0  os_core.o(i.OS_TaskStatStkChk)
    i.OS_TaskStkClr                          0x08003098   Section        0  os_task.o(i.OS_TaskStkClr)
    i.PendTransactionToQue                   0x080030b2   Section        0  wers.o(i.PendTransactionToQue)
    i.RCC_APB1PeriphClockCmd                 0x080031ac   Section        0  stm32f10x_rcc.o(i.RCC_APB1PeriphClockCmd)
    i.RCC_APB2PeriphClockCmd                 0x080031cc   Section        0  stm32f10x_rcc.o(i.RCC_APB2PeriphClockCmd)
    i.RCC_GetClocksFreq                      0x080031ec   Section        0  stm32f10x_rcc.o(i.RCC_GetClocksFreq)
    i.RFMacSemPend                           0x080032c0   Section        0  wers.o(i.RFMacSemPend)
    i.RF_SendRTS                             0x08003320   Section        0  wers.o(i.RF_SendRTS)
    i.RegMrfiIsr                             0x080033b0   Section        0  bsp.o(i.RegMrfiIsr)
    i.ResetReceive                           0x080033cc   Section        0  mrfi.o(i.ResetReceive)
    i.SMPL_Init                              0x080033fc   Section        0  nwk_api.o(i.SMPL_Init)
    i.SMPL_Ioctl                             0x08003448   Section        0  nwk_api.o(i.SMPL_Ioctl)
    i.SMPL_Link                              0x080034e2   Section        0  nwk_api.o(i.SMPL_Link)
    i.SMPL_LinkClose                         0x080034ee   Section        0  nwk_api.o(i.SMPL_LinkClose)
    i.SMPL_LinkListen                        0x080034fc   Section        0  nwk_api.o(i.SMPL_LinkListen)
    i.SMPL_Ping                              0x08003512   Section        0  nwk_api.o(i.SMPL_Ping)
    i.SMPL_Receive                           0x0800351e   Section        0  nwk_api.o(i.SMPL_Receive)
    i.SMPL_Reset                             0x08003568   Section        0  nwk_api.o(i.SMPL_Reset)
    i.SMPL_Send                              0x08003580   Section        0  nwk_api.o(i.SMPL_Send)
    i.SMPL_SendEx                            0x080035f0   Section        0  wers.o(i.SMPL_SendEx)
    i.SPI_CC1100_Init                        0x0800365c   Section        0  spi_cc1100.o(i.SPI_CC1100_Init)
    i.SPI_Cmd                                0x080036f4   Section        0  stm32f10x_spi.o(i.SPI_Cmd)
    i.SPI_Init                               0x0800370c   Section        0  stm32f10x_spi.o(i.SPI_Init)
    i.SPI_RxTxByte                           0x08003748   Section        0  spi_cc1100.o(i.SPI_RxTxByte)
    i.STM_EVAL_COMInit                       0x08003774   Section        0  stm32_eval.o(i.STM_EVAL_COMInit)
    i.STM_EVAL_LEDInit                       0x08003818   Section        0  stm32_eval.o(i.STM_EVAL_LEDInit)
    i.STM_EVAL_LEDOff                        0x08003860   Section        0  stm32_eval.o(i.STM_EVAL_LEDOff)
    i.STM_EVAL_LEDOn                         0x08003888   Section        0  stm32_eval.o(i.STM_EVAL_LEDOn)
    i.STM_EVAL_LEDSet                        0x080038a0   Section        0  stm32_eval.o(i.STM_EVAL_LEDSet)
    i.STM_EVAL_LEDToggle                     0x080038e8   Section        0  stm32_eval.o(i.STM_EVAL_LEDToggle)
    i.SVC_Handler                            0x0800390c   Section        0  stm32f10x_it.o(i.SVC_Handler)
    i.SearchTransactionGUID                  0x0800390e   Section        0  wers.o(i.SearchTransactionGUID)
    i.SendDataToPC                           0x08003954   Section        0  wers.o(i.SendDataToPC)
    i.SetSysClock                            0x08003988   Section        0  system_stm32f10x.o(i.SetSysClock)
    SetSysClock                              0x08003989   Thumb Code     8  system_stm32f10x.o(i.SetSysClock)
    i.SetSysClockTo72                        0x08003990   Section        0  system_stm32f10x.o(i.SetSysClockTo72)
    SetSysClockTo72                          0x08003991   Thumb Code   198  system_stm32f10x.o(i.SetSysClockTo72)
    i.StartTimer                             0x08003a60   Section        0  dtimer.o(i.StartTimer)
    i.SysTick_Handler                        0x08003a74   Section        0  stm32f10x_it.o(i.SysTick_Handler)
    i.SystemInit                             0x08003a9c   Section        0  system_stm32f10x.o(i.SystemInit)
    i.TIM3_IRQHandler                        0x08003b48   Section        0  dtimer.o(i.TIM3_IRQHandler)
    i.TIM_Cmd                                0x08003c14   Section        0  stm32f10x_tim.o(i.TIM_Cmd)
    i.TIM_ITConfig                           0x08003c2c   Section        0  stm32f10x_tim.o(i.TIM_ITConfig)
    i.TIM_OC1Init                            0x08003c44   Section        0  stm32f10x_tim.o(i.TIM_OC1Init)
    i.TIM_TimeBaseInit                       0x08003cbc   Section        0  stm32f10x_tim.o(i.TIM_TimeBaseInit)
    i.USART1_IRQHandler                      0x08003cf8   Section        0  bsp.o(i.USART1_IRQHandler)
    i.USART_Cmd                              0x08003d34   Section        0  stm32f10x_usart.o(i.USART_Cmd)
    i.USART_GetFlagStatus                    0x08003d4c   Section        0  stm32f10x_usart.o(i.USART_GetFlagStatus)
    i.USART_ITConfig                         0x08003d66   Section        0  stm32f10x_usart.o(i.USART_ITConfig)
    i.USART_Init                             0x08003db0   Section        0  stm32f10x_usart.o(i.USART_Init)
    i.USART_SendData                         0x08003e50   Section        0  stm32f10x_usart.o(i.USART_SendData)
    i.UsageFault_Handler                     0x08003e58   Section        0  stm32f10x_it.o(i.UsageFault_Handler)
    i.WERS485RecevieTask                     0x08003e5c   Section        0  wers.o(i.WERS485RecevieTask)
    i.WERS485Send                            0x08003eb4   Section        0  wers.o(i.WERS485Send)
    i.WERSAPCmd                              0x08003f10   Section        0  wers.o(i.WERSAPCmd)
    i.WERSExTask                             0x080040e8   Section        0  wers.o(i.WERSExTask)
    i.WERSExWorking                          0x08004558   Section        0  wers.o(i.WERSExWorking)
    WERSExWorking                            0x08004559   Thumb Code    64  wers.o(i.WERSExWorking)
    i.WERSGenerate_RF_GUID                   0x080045a4   Section        0  wers.o(i.WERSGenerate_RF_GUID)
    i.WERSGetDeviceAddress                   0x080045ac   Section        0  wers.o(i.WERSGetDeviceAddress)
    i.WERSMsTimeGet                          0x080045c0   Section        0  wers.o(i.WERSMsTimeGet)
    i.WERSMsTimeSet                          0x080045dc   Section        0  wers.o(i.WERSMsTimeSet)
    i.WERSPCDataProcess                      0x080045fc   Section        0  wers.o(i.WERSPCDataProcess)
    i.WERSPCPridge                           0x080046d4   Section        0  wers.o(i.WERSPCPridge)
    i.WERSRFBridgeTask                       0x08004840   Section        0  wers.o(i.WERSRFBridgeTask)
    WERSRFBridgeTask                         0x08004841   Thumb Code   130  wers.o(i.WERSRFBridgeTask)
    i.WERSRFReceiverTask                     0x080048d0   Section        0  wers.o(i.WERSRFReceiverTask)
    i.WERSReadDevice                         0x0800497c   Section        0  wers.o(i.WERSReadDevice)
    WERSReadDevice                           0x0800497d   Thumb Code    70  wers.o(i.WERSReadDevice)
    i.WERSResponseCTS                        0x080049cc   Section        0  wers.o(i.WERSResponseCTS)
    i.WERSSendDataAck                        0x08004a10   Section        0  wers.o(i.WERSSendDataAck)
    i.WERSSetDeviceAddress                   0x08004a80   Section        0  wers.o(i.WERSSetDeviceAddress)
    i.WERSTimerISR                           0x08004a94   Section        0  wers.o(i.WERSTimerISR)
    i.WERSWriteDevice                        0x08004abc   Section        0  wers.o(i.WERSWriteDevice)
    WERSWriteDevice                          0x08004abd   Thumb Code    32  wers.o(i.WERSWriteDevice)
    i.WERS_RTS_CTS_Notify                    0x08004adc   Section        0  wers.o(i.WERS_RTS_CTS_Notify)
    WERS_RTS_CTS_Notify                      0x08004add   Thumb Code   284  wers.o(i.WERS_RTS_CTS_Notify)
    i.WERS_RandomDelay                       0x08004c0c   Section        0  wers.o(i.WERS_RandomDelay)
    i.WERS_Transmit                          0x08004c48   Section        0  wers.o(i.WERS_Transmit)
    i.WERS_init                              0x08004dd4   Section        0  wers.o(i.WERS_init)
    i.WERS_processReSendRequest              0x08004df0   Section        0  wers.o(i.WERS_processReSendRequest)
    WERS_processReSendRequest                0x08004df1   Thumb Code    74  wers.o(i.WERS_processReSendRequest)
    i.WatchDogInit                           0x08004e40   Section        0  rf_wd.o(i.WatchDogInit)
    i.__0printf$8                            0x08004e90   Section        0  printf8.o(i.__0printf$8)
    i.__scatterload_copy                     0x08004eb0   Section       14  handlers.o(i.__scatterload_copy)
    i.__scatterload_null                     0x08004ebe   Section        2  handlers.o(i.__scatterload_null)
    i.__scatterload_zeroinit                 0x08004ec0   Section       14  handlers.o(i.__scatterload_zeroinit)
    i._printf_core                           0x08004ed0   Section        0  printf8.o(i._printf_core)
    _printf_core                             0x08004ed1   Thumb Code  1010  printf8.o(i._printf_core)
    i._printf_post_padding                   0x080052f0   Section        0  printf8.o(i._printf_post_padding)
    _printf_post_padding                     0x080052f1   Thumb Code    38  printf8.o(i._printf_post_padding)
    i._printf_pre_padding                    0x08005316   Section        0  printf8.o(i._printf_pre_padding)
    _printf_pre_padding                      0x08005317   Thumb Code    48  printf8.o(i._printf_pre_padding)
    i.broadcast_nwk_reset                    0x08005348   Section        0  nwk_mgmt.o(i.broadcast_nwk_reset)
    i.broadcast_nwk_search_server            0x0800538c   Section        0  nwk_mgmt.o(i.broadcast_nwk_search_server)
    i.cal_crc                                0x080053d0   Section        0  wers.o(i.cal_crc)
    i.delay                                  0x08005414   Section        0  stm32f10x_flash.o(i.delay)
    delay                                    0x08005415   Thumb Code    14  stm32f10x_flash.o(i.delay)
    i.dispatchFrame                          0x08005424   Section        0  nwk_frame.o(i.dispatchFrame)
    dispatchFrame                            0x08005425   Thumb Code   284  nwk_frame.o(i.dispatchFrame)
    i.fmemcmp                                0x0800557c   Section        0  flash.o(i.fmemcmp)
    i.fputc                                  0x080055b0   Section        0  uart.o(i.fputc)
    i.generateLinkToken                      0x080055f0   Section        0  nwk_join.o(i.generateLinkToken)
    generateLinkToken                        0x080055f1   Thumb Code     8  nwk_join.o(i.generateLinkToken)
    i.init_485_uart                          0x08005600   Section        0  uart.o(i.init_485_uart)
    i.init_dbguart                           0x08005654   Section        0  uart.o(i.init_dbguart)
    i.initializeConnection                   0x08005678   Section        0  nwk.o(i.initializeConnection)
    initializeConnection                     0x08005679   Thumb Code    60  nwk.o(i.initializeConnection)
    i.isDupSandFFrame                        0x080056b8   Section        0  nwk_frame.o(i.isDupSandFFrame)
    i.mDelay                                 0x0800572c   Section        0  dtimer.o(i.mDelay)
    i.main                                   0x08005754   Section        0  main.o(i.main)
    i.map_lid2idx                            0x0800578c   Section        0  nwk.o(i.map_lid2idx)
    map_lid2idx                              0x0800578d   Thumb Code    44  nwk.o(i.map_lid2idx)
    i.mrfiSpiCmdStrobe                       0x080057bc   Section        0  mrfi.o(i.mrfiSpiCmdStrobe)
    i.mrfiSpiInit                            0x08005808   Section        0  mrfi.o(i.mrfiSpiInit)
    i.mrfiSpiReadReg                         0x0800581c   Section        0  mrfi.o(i.mrfiSpiReadReg)
    i.mrfiSpiReadRxFifo                      0x0800582c   Section        0  mrfi.o(i.mrfiSpiReadRxFifo)
    i.mrfiSpiWriteReg                        0x0800583e   Section        0  mrfi.o(i.mrfiSpiWriteReg)
    i.mrfiSpiWriteTxFifo                     0x0800584e   Section        0  mrfi.o(i.mrfiSpiWriteTxFifo)
    i.mrfi_delay                             0x08005860   Section        0  mrfi.o(i.mrfi_delay)
    i.nwk_CTS_process                        0x0800586c   Section        0  nwk_mgmt.o(i.nwk_CTS_process)
    i.nwk_DS_process                         0x08005908   Section        0  nwk_mgmt.o(i.nwk_DS_process)
    i.nwk_Data_Ack_process                   0x08005934   Section        0  nwk_mgmt.o(i.nwk_Data_Ack_process)
    i.nwk_QInit                              0x08005978   Section        0  nwk_qmgmt.o(i.nwk_QInit)
    i.nwk_QadjustOrder                       0x08005998   Section        0  nwk_qmgmt.o(i.nwk_QadjustOrder)
    i.nwk_QfindOldest                        0x080059e4   Section        0  nwk_qmgmt.o(i.nwk_QfindOldest)
    i.nwk_QfindSlot                          0x08005b28   Section        0  nwk_qmgmt.o(i.nwk_QfindSlot)
    i.nwk_RTS_process                        0x08005bc8   Section        0  nwk_mgmt.o(i.nwk_RTS_process)
    i.nwk_ResetSet                           0x08005c28   Section        0  nwk.o(i.nwk_ResetSet)
    i.nwk_SendEmptyPollRspFrame              0x08005c34   Section        0  nwk_frame.o(i.nwk_SendEmptyPollRspFrame)
    i.nwk_allocateLocalRxPort                0x08005ce4   Section        0  nwk.o(i.nwk_allocateLocalRxPort)
    i.nwk_buildFrame                         0x08005dd0   Section        0  nwk_frame.o(i.nwk_buildFrame)
    i.nwk_checkConnInfo                      0x08005e64   Section        0  nwk.o(i.nwk_checkConnInfo)
    i.nwk_connectionControl                  0x08005e86   Section        0  nwk_ioctl.o(i.nwk_connectionControl)
    i.nwk_deviceAddress                      0x08005eb6   Section        0  nwk_ioctl.o(i.nwk_deviceAddress)
    i.nwk_findAlreadyJoined                  0x08005edc   Section        0  nwk.o(i.nwk_findAlreadyJoined)
    i.nwk_frameInit                          0x08005f14   Section        0  nwk_frame.o(i.nwk_frameInit)
    i.nwk_freeConnection                     0x08005f50   Section        0  nwk.o(i.nwk_freeConnection)
    i.nwk_freeConnectionEx                   0x08005f58   Section        0  nwk.o(i.nwk_freeConnectionEx)
    i.nwk_freqInit                           0x08005fac   Section        0  nwk_freq.o(i.nwk_freqInit)
    i.nwk_getBCastAddress                    0x08005fb0   Section        0  nwk_globals.o(i.nwk_getBCastAddress)
    i.nwk_getConnInfo                        0x08005fb8   Section        0  nwk.o(i.nwk_getConnInfo)
    i.nwk_getLocalLinkID                     0x08005ff8   Section        0  nwk_link.o(i.nwk_getLocalLinkID)
    i.nwk_getMyAddress                       0x08006048   Section        0  nwk_globals.o(i.nwk_getMyAddress)
    i.nwk_getMyRxType                        0x08006064   Section        0  nwk_frame.o(i.nwk_getMyRxType)
    i.nwk_getNextConnection                  0x08006070   Section        0  nwk.o(i.nwk_getNextConnection)
    i.nwk_getQ                               0x080060c0   Section        0  nwk_qmgmt.o(i.nwk_getQ)
    i.nwk_getSandFFrame                      0x080060d8   Section        0  nwk_frame.o(i.nwk_getSandFFrame)
    i.nwk_getServerAddress                   0x0800613c   Section        0  nwk_globals.o(i.nwk_getServerAddress)
    i.nwk_globalsInit                        0x08006144   Section        0  nwk_globals.o(i.nwk_globalsInit)
    i.nwk_isConnectionValid                  0x08006168   Section        0  nwk.o(i.nwk_isConnectionValid)
    i.nwk_isLinkDuplicate                    0x080061c0   Section        0  nwk.o(i.nwk_isLinkDuplicate)
    i.nwk_isLinked                           0x08006204   Section        0  nwk.o(i.nwk_isLinked)
    i.nwk_isSandFClient                      0x08006238   Section        0  nwk_join.o(i.nwk_isSandFClient)
    i.nwk_isValidReply                       0x08006268   Section        0  nwk.o(i.nwk_isValidReply)
    i.nwk_join                               0x080062b0   Section        0  nwk_join.o(i.nwk_join)
    i.nwk_joinContext                        0x080062d4   Section        0  nwk_ioctl.o(i.nwk_joinContext)
    i.nwk_joinInit                           0x080062ec   Section        0  nwk_join.o(i.nwk_joinInit)
    i.nwk_link                               0x08006330   Section        0  nwk_link.o(i.nwk_link)
    i.nwk_linkClose                          0x08006484   Section        0  nwk_link.o(i.nwk_linkClose)
    i.nwk_linkInit                           0x08006490   Section        0  nwk_link.o(i.nwk_linkInit)
    i.nwk_mgmtInit                           0x080064d0   Section        0  nwk_mgmt.o(i.nwk_mgmtInit)
    i.nwk_nwkInit                            0x080064e0   Section        0  nwk.o(i.nwk_nwkInit)
    i.nwk_ping                               0x08006570   Section        0  nwk_ping.o(i.nwk_ping)
    i.nwk_pingInit                           0x08006640   Section        0  nwk_ping.o(i.nwk_pingInit)
    i.nwk_processFreq                        0x08006650   Section        0  nwk_freq.o(i.nwk_processFreq)
    i.nwk_processJoin                        0x08006658   Section        0  nwk_join.o(i.nwk_processJoin)
    i.nwk_processLink                        0x08006698   Section        0  nwk_link.o(i.nwk_processLink)
    i.nwk_processMgmt                        0x080066d8   Section        0  nwk_mgmt.o(i.nwk_processMgmt)
    i.nwk_processPing                        0x08006780   Section        0  nwk_ping.o(i.nwk_processPing)
    i.nwk_processSecurity                    0x080067d4   Section        0  nwk_security.o(i.nwk_processSecurity)
    i.nwk_radioControl                       0x080067da   Section        0  nwk_ioctl.o(i.nwk_radioControl)
    i.nwk_rawReceive                         0x08006848   Section        0  nwk_ioctl.o(i.nwk_rawReceive)
    i.nwk_rawSend                            0x0800686c   Section        0  nwk_ioctl.o(i.nwk_rawSend)
    i.nwk_retrieveFrame                      0x080068b4   Section        0  nwk_frame.o(i.nwk_retrieveFrame)
    i.nwk_saveJoinedDevice                   0x08006944   Section        0  nwk.o(i.nwk_saveJoinedDevice)
    i.nwk_securityInit                       0x08006998   Section        0  nwk_security.o(i.nwk_securityInit)
    i.nwk_sendFrame                          0x0800699c   Section        0  nwk_frame.o(i.nwk_sendFrame)
    i.nwk_setAPAddress                       0x080069d0   Section        0  nwk_globals.o(i.nwk_setAPAddress)
    i.nwk_setJoinContext                     0x080069dc   Section        0  nwk_join.o(i.nwk_setJoinContext)
    i.nwk_setLinkToken                       0x080069f0   Section        0  nwk_link.o(i.nwk_setLinkToken)
    i.nwk_setListenContext                   0x080069fc   Section        0  nwk_link.o(i.nwk_setListenContext)
    i.nwk_setMyAddress                       0x08006a10   Section        0  nwk_globals.o(i.nwk_setMyAddress)
    i.processMessage                         0x08006a2c   Section        0  wers.o(i.processMessage)
    processMessage                           0x08006a2d   Thumb Code   282  wers.o(i.processMessage)
    i.resend_request_process                 0x08006b68   Section        0  nwk_mgmt.o(i.resend_request_process)
    i.rf_mem_free                            0x08006bb4   Section        0  rf_mem.o(i.rf_mem_free)
    i.rf_mem_init                            0x08006c5c   Section        0  rf_mem.o(i.rf_mem_init)
    i.rf_mem_malloc                          0x08006ca8   Section        0  rf_mem.o(i.rf_mem_malloc)
    i.rf_plug_holes                          0x08006e44   Section        0  rf_mem.o(i.rf_plug_holes)
    rf_plug_holes                            0x08006e45   Thumb Code   148  rf_mem.o(i.rf_plug_holes)
    i.sCB                                    0x08006f5c   Section        0  wers.o(i.sCB)
    sCB                                      0x08006f5d   Thumb Code    30  wers.o(i.sCB)
    i.sReset                                 0x08006f84   Section        0  wers.o(i.sReset)
    sReset                                   0x08006f85   Thumb Code    40  wers.o(i.sReset)
    i.send_poll_reply                        0x08006fbc   Section        0  nwk_mgmt.o(i.send_poll_reply)
    send_poll_reply                          0x08006fbd   Thumb Code    60  nwk_mgmt.o(i.send_poll_reply)
    i.send_search_server_reply               0x08006ff8   Section        0  nwk_mgmt.o(i.send_search_server_reply)
    send_search_server_reply                 0x08006ff9   Thumb Code   116  nwk_mgmt.o(i.send_search_server_reply)
    i.smpl_send_join_reply                   0x08007078   Section        0  nwk_join.o(i.smpl_send_join_reply)
    smpl_send_join_reply                     0x08007079   Thumb Code   296  nwk_join.o(i.smpl_send_join_reply)
    i.smpl_send_link_reply                   0x080071c4   Section        0  nwk_link.o(i.smpl_send_link_reply)
    smpl_send_link_reply                     0x080071c5   Thumb Code   480  nwk_link.o(i.smpl_send_link_reply)
    i.smpl_send_mgmt_reply                   0x080073f4   Section        0  nwk_mgmt.o(i.smpl_send_mgmt_reply)
    smpl_send_mgmt_reply                     0x080073f5   Thumb Code   120  nwk_mgmt.o(i.smpl_send_mgmt_reply)
    i.smpl_send_ping_reply                   0x08007488   Section        0  nwk_ping.o(i.smpl_send_ping_reply)
    smpl_send_ping_reply                     0x08007489   Thumb Code    52  nwk_ping.o(i.smpl_send_ping_reply)
    i.spiBurstFifoAccess                     0x080074bc   Section        0  mrfi.o(i.spiBurstFifoAccess)
    spiBurstFifoAccess                       0x080074bd   Thumb Code   120  mrfi.o(i.spiBurstFifoAccess)
    i.spiRegAccess                           0x0800753c   Section        0  mrfi.o(i.spiRegAccess)
    spiRegAccess                             0x0800753d   Thumb Code    90  mrfi.o(i.spiRegAccess)
    i.tmrMsTimeGet                           0x080075a0   Section        0  dtimer.o(i.tmrMsTimeGet)
    i.uDelay                                 0x080075ac   Section        0  dtimer.o(i.uDelay)
    i.watchDogTask                           0x080075c4   Section        0  rf_wd.o(i.watchDogTask)
    watchDogTask                             0x080075c5   Thumb Code    80  rf_wd.o(i.watchDogTask)
    .constdata                               0x08007624   Section      172  stm32_eval.o(.constdata)
    .constdata                               0x080076d0   Section      191  mrfi.o(.constdata)
    mrfiRadioCfg                             0x080076d0   Data          62  mrfi.o(.constdata)
    mrfiLogicalChanTable                     0x08007712   Data           4  mrfi.o(.constdata)
    __FUNCTION__                             0x08007716   Data          10  mrfi.o(.constdata)
    __FUNCTION__                             0x08007720   Data          14  mrfi.o(.constdata)
    __FUNCTION__                             0x0800772e   Data          18  mrfi.o(.constdata)
    __FUNCTION__                             0x08007740   Data          10  mrfi.o(.constdata)
    __FUNCTION__                             0x0800774a   Data          12  mrfi.o(.constdata)
    __FUNCTION__                             0x08007756   Data          10  mrfi.o(.constdata)
    __FUNCTION__                             0x08007760   Data          23  mrfi.o(.constdata)
    __FUNCTION__                             0x08007777   Data          24  mrfi.o(.constdata)
    .constdata                               0x08007790   Section       24  nwk_frame.o(.constdata)
    func                                     0x08007790   Data          24  nwk_frame.o(.constdata)
    .constdata                               0x080077a8   Section       23  nwk_globals.o(.constdata)
    sMyROMAddress                            0x080077a8   Data           4  nwk_globals.o(.constdata)
    .constdata                               0x080077c0   Section      369  wers.o(.constdata)
    Default_Addr                             0x080078c8   Data           4  wers.o(.constdata)
    crc_ta                                   0x080078cc   Data          32  wers.o(.constdata)
    .constdata                               0x08007931   Section      256  os_core.o(.constdata)
    .conststring                             0x08007a31   Section      100  nwk_frame.o(.conststring)
    .data                                    0x20000000   Section        4  dtimer.o(.data)
    g_msec                                   0x20000000   Data           4  dtimer.o(.data)
    .data                                    0x20000004   Section       72  stm32_eval.o(.data)
    .data                                    0x2000004c   Section       20  stm32f10x_rcc.o(.data)
    APBAHBPrescTable                         0x2000004c   Data          16  stm32f10x_rcc.o(.data)
    ADCPrescTable                            0x2000005c   Data           4  stm32f10x_rcc.o(.data)
    .data                                    0x20000060   Section       31  mrfi.o(.data)
    sReplyDelayScalar                        0x20000060   Data           2  mrfi.o(.data)
    sBackoffHelper                           0x20000062   Data           2  mrfi.o(.data)
    mrfiRadioState                           0x20000078   Data           1  mrfi.o(.data)
    mrfiRxFilterEnabled                      0x20000079   Data           1  mrfi.o(.data)
    mrfiRxFilterAddr                         0x2000007a   Data           4  mrfi.o(.data)
    mrfiRndSeed                              0x2000007e   Data           1  mrfi.o(.data)
    .data                                    0x20000080   Section        4  bsp.o(.data)
    pMRFI_GpioIsr                            0x20000080   Data           4  bsp.o(.data)
    .data                                    0x20000084   Section     1688  nwk.o(.data)
    sPersistInfo                             0x20000084   Data        1682  nwk.o(.data)
    .data                                    0x2000071c   Section        1  nwk_api.o(.data)
    sInit_done                               0x2000071c   Data           1  nwk_api.o(.data)
    .data                                    0x20000720   Section       40  nwk_frame.o(.data)
    func_names                               0x20000720   Data          24  nwk_frame.o(.data)
    sTRACTID                                 0x20000738   Data           1  nwk_frame.o(.data)
    sMyAddr                                  0x2000073c   Data           4  nwk_frame.o(.data)
    sMyRxType                                0x20000740   Data           1  nwk_frame.o(.data)
    sMyTxType                                0x20000741   Data           1  nwk_frame.o(.data)
    spCallback                               0x20000744   Data           4  nwk_frame.o(.data)
    .data                                    0x20000748   Section       14  nwk_globals.o(.data)
    sRAMAddressIsSet                         0x20000748   Data           1  nwk_globals.o(.data)
    sServerAddress                           0x20000749   Data           4  nwk_globals.o(.data)
    sAPAddress                               0x2000074e   Data           4  nwk_globals.o(.data)
    sMyRAMAddress                            0x20000752   Data           4  nwk_globals.o(.data)
    .data                                    0x20000758   Section       17  nwk_join.o(.data)
    sJoinToken                               0x20000758   Data           4  nwk_join.o(.data)
    spCallback                               0x2000075c   Data           4  nwk_join.o(.data)
    sTid                                     0x20000760   Data           1  nwk_join.o(.data)
    sJoinOK                                  0x20000761   Data           1  nwk_join.o(.data)
    sLinkToken                               0x20000764   Data           4  nwk_join.o(.data)
    sCurNumSandFClients                      0x20000768   Data           1  nwk_join.o(.data)
    .data                                    0x2000076c   Section       12  nwk_link.o(.data)
    sLinkToken                               0x2000076c   Data           4  nwk_link.o(.data)
    sListenActive                            0x20000770   Data           1  nwk_link.o(.data)
    sNumLinkers                              0x20000771   Data           1  nwk_link.o(.data)
    sTid                                     0x20000772   Data           1  nwk_link.o(.data)
    sDefaultLinkToken                        0x20000774   Data           4  nwk_link.o(.data)
    .data                                    0x20000778   Section        1  nwk_mgmt.o(.data)
    sTid                                     0x20000778   Data           1  nwk_mgmt.o(.data)
    .data                                    0x20000779   Section        1  nwk_ping.o(.data)
    sTid                                     0x20000779   Data           1  nwk_ping.o(.data)
    .data                                    0x2000077c   Section      172  wers.o(.data)
    WERSQue                                  0x2000077c   Data           4  wers.o(.data)
    g_485OutQue                              0x20000780   Data           4  wers.o(.data)
    WERSTime0flag                            0x20000784   Data           1  wers.o(.data)
    g_pTranscationQue                        0x20000788   Data           4  wers.o(.data)
    gs_linkID                                0x2000078c   Data           1  wers.o(.data)
    g_485InQue                               0x20000790   Data           4  wers.o(.data)
    g_RTSQue                                 0x20000794   Data           4  wers.o(.data)
    sPeerFrameSem                            0x20000798   Data           4  wers.o(.data)
    receivepackeNumber                       0x2000079c   Data           4  wers.o(.data)
    sBegintime                               0x200007a0   Data           4  wers.o(.data)
    sBackOffCounter                          0x200007a4   Data           4  wers.o(.data)
    g_485CurrentStates                       0x200007a8   Data           4  wers.o(.data)
    g_NetworkCurrentStates                   0x200007ac   Data           4  wers.o(.data)
    g_DeviceStatus                           0x200007b0   Data           4  wers.o(.data)
    timemsStart                              0x200007b4   Data           4  wers.o(.data)
    datemsStart                              0x200007b8   Data           4  wers.o(.data)
    sNumGUIDforPCEmenu                       0x200007e0   Data           4  wers.o(.data)
    ls_time                                  0x2000080c   Data           4  wers.o(.data)
    ls_pos                                   0x20000810   Data           4  wers.o(.data)
    blockSize                                0x20000814   Data           2  wers.o(.data)
    pWERS485                                 0x20000818   Data           4  wers.o(.data)
    pWERS                                    0x2000081c   Data           4  wers.o(.data)
    status                                   0x20000820   Data           1  wers.o(.data)
    sJoinSem                                 0x20000821   Data           1  wers.o(.data)
    sNumCurrentPeers                         0x20000822   Data           1  wers.o(.data)
    .data                                    0x20000828   Section        4  rf_wd.o(.data)
    .data                                    0x2000082c   Section        8  rf_mem.o(.data)
    rf_ram_end                               0x2000082c   Data           4  rf_mem.o(.data)
    rf_lfree                                 0x20000830   Data           4  rf_mem.o(.data)
    .data                                    0x20000834   Section        2  os_cpu_c.o(.data)
    OSTmrCtr                                 0x20000834   Data           2  os_cpu_c.o(.data)
    .data                                    0x20000838   Section       92  os_core.o(.data)
    .data                                    0x20000894   Section        4  stdout.o(.data)
    .bss                                     0x20000898   Section      416  main.o(.bss)
    .bss                                     0x20000a38   Section       64  dtimer.o(.bss)
    .bss                                     0x20000a78   Section     2048  flash.o(.bss)
    FLASH_SWAP                               0x20000a78   Data        2048  flash.o(.bss)
    .bss                                     0x20001278   Section       16  uart.o(.bss)
    .bss                                     0x20001288   Section       64  mrfi.o(.bss)
    mrfiIncomingPacket                       0x20001288   Data          64  mrfi.o(.bss)
    .bss                                     0x200012c8   Section      388  nwk_frame.o(.bss)
    ComInPackeQ                              0x200012c8   Data         388  nwk_frame.o(.bss)
    .bss                                     0x2000144c   Section    10880  nwk_qmgmt.o(.bss)
    sInFrameQ                                0x2000144c   Data        8704  nwk_qmgmt.o(.bss)
    sOutFrameQ                               0x2000364c   Data        2176  nwk_qmgmt.o(.bss)
    .bss                                     0x20003ecc   Section       12  nwk_join.o(.bss)
    sSandFClients                            0x20003ecc   Data          12  nwk_join.o(.bss)
    .bss                                     0x20003ed8   Section      128  nwk_link.o(.bss)
    .bss                                     0x20003f58   Section    10792  wers.o(.bss)
    ls_data                                  0x20003f58   Data          37  wers.o(.bss)
    WERSQueBuf                               0x20003f80   Data         128  wers.o(.bss)
    TransactionQue                           0x20004000   Data         800  wers.o(.bss)
    g_485InQueBuf                            0x20004320   Data         128  wers.o(.bss)
    RTSQueBuf                                0x200043a0   Data         128  wers.o(.bss)
    sLID                                     0x20004420   Data         128  wers.o(.bss)
    sGUIDMaps                                0x20006880   Data         256  wers.o(.bss)
    .bss                                     0x20006980   Section     4108  rf_mem.o(.bss)
    rf_ram                                   0x20006980   Data        4108  rf_mem.o(.bss)
    .bss                                     0x2000798c   Section     6568  os_core.o(.bss)
    STACK                                    0x20009338   Section      256  startup_stm32f10x_hd.o(STACK)
    __initial_spTop                          0x20009438   Data           0  startup_stm32f10x_hd.o(STACK)

    Global Symbols

    Symbol Name                              Value     Ov Type        Size  Object(Section)

    BuildAttributes$$THM_ISAv4$P$D$K$B$S$PE$A:L22UL41UL21$X:L11$S22US41US21$IEEE1$IW$USESV6$~STKCKD$USESV7$~SHL$OSPACE$ROPI$EBA8$MICROLIB$REQ8$PRES8$EABIv2 0x00000000   Number         0  anon$$obj.o ABSOLUTE
    __ARM_use_no_argv                        0x00000000   Number         0  main.o ABSOLUTE
    _printf_a                                0x00000000   Number         0  stubs.o ABSOLUTE
    _printf_c                                0x00000000   Number         0  stubs.o ABSOLUTE
    _printf_charcount                        0x00000000   Number         0  stubs.o ABSOLUTE
    _printf_d                                0x00000000   Number         0  stubs.o ABSOLUTE
    _printf_e                                0x00000000   Number         0  stubs.o ABSOLUTE
    _printf_f                                0x00000000   Number         0  stubs.o ABSOLUTE
    _printf_flags                            0x00000000   Number         0  stubs.o ABSOLUTE
    _printf_fp_dec                           0x00000000   Number         0  stubs.o ABSOLUTE
    _printf_fp_hex                           0x00000000   Number         0  stubs.o ABSOLUTE
    _printf_g                                0x00000000   Number         0  stubs.o ABSOLUTE
    _printf_i                                0x00000000   Number         0  stubs.o ABSOLUTE
    _printf_int_dec                          0x00000000   Number         0  stubs.o ABSOLUTE
    _printf_l                                0x00000000   Number         0  stubs.o ABSOLUTE
    _printf_lc                               0x00000000   Number         0  stubs.o ABSOLUTE
    _printf_ll                               0x00000000   Number         0  stubs.o ABSOLUTE
    _printf_lld                              0x00000000   Number         0  stubs.o ABSOLUTE
    _printf_lli                              0x00000000   Number         0  stubs.o ABSOLUTE
    _printf_llo                              0x00000000   Number         0  stubs.o ABSOLUTE
    _printf_llu                              0x00000000   Number         0  stubs.o ABSOLUTE
    _printf_llx                              0x00000000   Number         0  stubs.o ABSOLUTE
    _printf_longlong_dec                     0x00000000   Number         0  stubs.o ABSOLUTE
    _printf_longlong_hex                     0x00000000   Number         0  stubs.o ABSOLUTE
    _printf_longlong_oct                     0x00000000   Number         0  stubs.o ABSOLUTE
    _printf_ls                               0x00000000   Number         0  stubs.o ABSOLUTE
    _printf_mbtowc                           0x00000000   Number         0  stubs.o ABSOLUTE
    _printf_n                                0x00000000   Number         0  stubs.o ABSOLUTE
    _printf_o                                0x00000000   Number         0  stubs.o ABSOLUTE
    _printf_p                                0x00000000   Number         0  stubs.o ABSOLUTE
    _printf_percent                          0x00000000   Number         0  stubs.o ABSOLUTE
    _printf_pre_padding                      0x00000000   Number         0  stubs.o ABSOLUTE
    _printf_return_value                     0x00000000   Number         0  stubs.o ABSOLUTE
    _printf_s                                0x00000000   Number         0  stubs.o ABSOLUTE
    _printf_sizespec                         0x00000000   Number         0  stubs.o ABSOLUTE
    _printf_str                              0x00000000   Number         0  stubs.o ABSOLUTE
    _printf_truncate_signed                  0x00000000   Number         0  stubs.o ABSOLUTE
    _printf_truncate_unsigned                0x00000000   Number         0  stubs.o ABSOLUTE
    _printf_u                                0x00000000   Number         0  stubs.o ABSOLUTE
    _printf_wc                               0x00000000   Number         0  stubs.o ABSOLUTE
    _printf_wctomb                           0x00000000   Number         0  stubs.o ABSOLUTE
    _printf_widthprec                        0x00000000   Number         0  stubs.o ABSOLUTE
    _printf_x                                0x00000000   Number         0  stubs.o ABSOLUTE
    _clock_init                               - Undefined Weak Reference
    __Vectors_Size                           0x00000130   Number         0  startup_stm32f10x_hd.o ABSOLUTE
    __Vectors                                0x08000000   Data           4  startup_stm32f10x_hd.o(RESET)
    __Vectors_End                            0x08000130   Data           0  startup_stm32f10x_hd.o(RESET)
    __main                                   0x08000131   Thumb Code     0  entry.o(.ARM.Collect$$$$00000000)
    _main_stk                                0x08000131   Thumb Code     0  entry2.o(.ARM.Collect$$$$00000001)
    _main_scatterload                        0x08000135   Thumb Code     0  entry5.o(.ARM.Collect$$$$00000004)
    __main_after_scatterload                 0x08000139   Thumb Code     0  entry5.o(.ARM.Collect$$$$00000004)
    _main_clock                              0x08000139   Thumb Code     0  entry7b.o(.ARM.Collect$$$$00000008)
    _main_init                               0x08000139   Thumb Code     0  entry8.o(.ARM.Collect$$$$00000009)
    SystemReset                              0x08000145   Thumb Code    16  main.o(.emb_text)
    SystemInit_ExtMemCtl                     0x0800015d   Thumb Code     2  startup_stm32f10x_hd.o(.text)
    Reset_Handler                            0x0800015f   Thumb Code    14  startup_stm32f10x_hd.o(.text)
    ADC1_2_IRQHandler                        0x0800017f   Thumb Code     0  startup_stm32f10x_hd.o(.text)
    ADC3_IRQHandler                          0x0800017f   Thumb Code     0  startup_stm32f10x_hd.o(.text)
    CAN1_RX1_IRQHandler                      0x0800017f   Thumb Code     0  startup_stm32f10x_hd.o(.text)
    CAN1_SCE_IRQHandler                      0x0800017f   Thumb Code     0  startup_stm32f10x_hd.o(.text)
    DMA1_Channel1_IRQHandler                 0x0800017f   Thumb Code     0  startup_stm32f10x_hd.o(.text)
    DMA1_Channel2_IRQHandler                 0x0800017f   Thumb Code     0  startup_stm32f10x_hd.o(.text)
    DMA1_Channel3_IRQHandler                 0x0800017f   Thumb Code     0  startup_stm32f10x_hd.o(.text)
    DMA1_Channel4_IRQHandler                 0x0800017f   Thumb Code     0  startup_stm32f10x_hd.o(.text)
    DMA1_Channel5_IRQHandler                 0x0800017f   Thumb Code     0  startup_stm32f10x_hd.o(.text)
    DMA1_Channel6_IRQHandler                 0x0800017f   Thumb Code     0  startup_stm32f10x_hd.o(.text)
    DMA1_Channel7_IRQHandler                 0x0800017f   Thumb Code     0  startup_stm32f10x_hd.o(.text)
    DMA2_Channel1_IRQHandler                 0x0800017f   Thumb Code     0  startup_stm32f10x_hd.o(.text)
    DMA2_Channel2_IRQHandler                 0x0800017f   Thumb Code     0  startup_stm32f10x_hd.o(.text)
    DMA2_Channel3_IRQHandler                 0x0800017f   Thumb Code     0  startup_stm32f10x_hd.o(.text)
    DMA2_Channel4_5_IRQHandler               0x0800017f   Thumb Code     0  startup_stm32f10x_hd.o(.text)
    EXTI15_10_IRQHandler                     0x0800017f   Thumb Code     0  startup_stm32f10x_hd.o(.text)
    EXTI2_IRQHandler                         0x0800017f   Thumb Code     0  startup_stm32f10x_hd.o(.text)
    EXTI3_IRQHandler                         0x0800017f   Thumb Code     0  startup_stm32f10x_hd.o(.text)
    EXTI4_IRQHandler                         0x0800017f   Thumb Code     0  startup_stm32f10x_hd.o(.text)
    EXTI9_5_IRQHandler                       0x0800017f   Thumb Code     0  startup_stm32f10x_hd.o(.text)
    FLASH_IRQHandler                         0x0800017f   Thumb Code     0  startup_stm32f10x_hd.o(.text)
    FSMC_IRQHandler                          0x0800017f   Thumb Code     0  startup_stm32f10x_hd.o(.text)
    I2C1_ER_IRQHandler                       0x0800017f   Thumb Code     0  startup_stm32f10x_hd.o(.text)
    I2C1_EV_IRQHandler                       0x0800017f   Thumb Code     0  startup_stm32f10x_hd.o(.text)
    I2C2_ER_IRQHandler                       0x0800017f   Thumb Code     0  startup_stm32f10x_hd.o(.text)
    I2C2_EV_IRQHandler                       0x0800017f   Thumb Code     0  startup_stm32f10x_hd.o(.text)
    PVD_IRQHandler                           0x0800017f   Thumb Code     0  startup_stm32f10x_hd.o(.text)
    RCC_IRQHandler                           0x0800017f   Thumb Code     0  startup_stm32f10x_hd.o(.text)
    RTCAlarm_IRQHandler                      0x0800017f   Thumb Code     0  startup_stm32f10x_hd.o(.text)
    RTC_IRQHandler                           0x0800017f   Thumb Code     0  startup_stm32f10x_hd.o(.text)
    SDIO_IRQHandler                          0x0800017f   Thumb Code     0  startup_stm32f10x_hd.o(.text)
    SPI1_IRQHandler                          0x0800017f   Thumb Code     0  startup_stm32f10x_hd.o(.text)
    SPI2_IRQHandler                          0x0800017f   Thumb Code     0  startup_stm32f10x_hd.o(.text)
    SPI3_IRQHandler                          0x0800017f   Thumb Code     0  startup_stm32f10x_hd.o(.text)
    TAMPER_IRQHandler                        0x0800017f   Thumb Code     0  startup_stm32f10x_hd.o(.text)
    TIM1_BRK_IRQHandler                      0x0800017f   Thumb Code     0  startup_stm32f10x_hd.o(.text)
    TIM1_CC_IRQHandler                       0x0800017f   Thumb Code     0  startup_stm32f10x_hd.o(.text)
    TIM1_TRG_COM_IRQHandler                  0x0800017f   Thumb Code     0  startup_stm32f10x_hd.o(.text)
    TIM1_UP_IRQHandler                       0x0800017f   Thumb Code     0  startup_stm32f10x_hd.o(.text)
    TIM2_IRQHandler                          0x0800017f   Thumb Code     0  startup_stm32f10x_hd.o(.text)
    TIM4_IRQHandler                          0x0800017f   Thumb Code     0  startup_stm32f10x_hd.o(.text)
    TIM5_IRQHandler                          0x0800017f   Thumb Code     0  startup_stm32f10x_hd.o(.text)
    TIM6_IRQHandler                          0x0800017f   Thumb Code     0  startup_stm32f10x_hd.o(.text)
    TIM7_IRQHandler                          0x0800017f   Thumb Code     0  startup_stm32f10x_hd.o(.text)
    TIM8_BRK_IRQHandler                      0x0800017f   Thumb Code     0  startup_stm32f10x_hd.o(.text)
    TIM8_CC_IRQHandler                       0x0800017f   Thumb Code     0  startup_stm32f10x_hd.o(.text)
    TIM8_TRG_COM_IRQHandler                  0x0800017f   Thumb Code     0  startup_stm32f10x_hd.o(.text)
    TIM8_UP_IRQHandler                       0x0800017f   Thumb Code     0  startup_stm32f10x_hd.o(.text)
    UART4_IRQHandler                         0x0800017f   Thumb Code     0  startup_stm32f10x_hd.o(.text)
    UART5_IRQHandler                         0x0800017f   Thumb Code     0  startup_stm32f10x_hd.o(.text)
    USART2_IRQHandler                        0x0800017f   Thumb Code     0  startup_stm32f10x_hd.o(.text)
    USART3_IRQHandler                        0x0800017f   Thumb Code     0  startup_stm32f10x_hd.o(.text)
    USBWakeUp_IRQHandler                     0x0800017f   Thumb Code     0  startup_stm32f10x_hd.o(.text)
    USB_HP_CAN1_TX_IRQHandler                0x0800017f   Thumb Code     0  startup_stm32f10x_hd.o(.text)
    USB_LP_CAN1_RX0_IRQHandler               0x0800017f   Thumb Code     0  startup_stm32f10x_hd.o(.text)
    WWDG_IRQHandler                          0x0800017f   Thumb Code     0  startup_stm32f10x_hd.o(.text)
    OS_CPU_SR_Save                           0x0800018d   Thumb Code     0  os_cpu_a.o(.text)
    OS_CPU_SR_Restore                        0x08000195   Thumb Code     0  os_cpu_a.o(.text)
    OSStartHighRdy                           0x0800019b   Thumb Code     0  os_cpu_a.o(.text)
    OSCtxSw                                  0x080001bb   Thumb Code     0  os_cpu_a.o(.text)
    OSIntCtxSw                               0x080001c9   Thumb Code     0  os_cpu_a.o(.text)
    OSPendSV                                 0x080001d7   Thumb Code     0  os_cpu_a.o(.text)
    ___aeabi_memcpy8$ret                     0x0800023d   Thumb Code     0  memcpy.o(.text)
    __aeabi_memcpy                           0x0800023d   Thumb Code    40  memcpy.o(.text)
    __aeabi_memcpy4                          0x0800023d   Thumb Code     0  memcpy.o(.text)
    memcpy                                   0x0800023d   Thumb Code     0  memcpy.o(.text)
    __aeabi_memset                           0x08000265   Thumb Code    14  memseta.o(.text)
    __aeabi_memset4                          0x08000265   Thumb Code     0  memseta.o(.text)
    __aeabi_memset8                          0x08000265   Thumb Code     0  memseta.o(.text)
    __aeabi_memclr                           0x08000273   Thumb Code     4  memseta.o(.text)
    __aeabi_memclr4                          0x08000273   Thumb Code     0  memseta.o(.text)
    __aeabi_memclr8                          0x08000273   Thumb Code     0  memseta.o(.text)
    _memset$wrapper                          0x08000277   Thumb Code    20  memseta.o(.text)
    memcmp                                   0x0800028b   Thumb Code    26  memcmp.o(.text)
    __aeabi_uldivmod                         0x080002a5   Thumb Code    98  uldiv.o(.text)
    __scatterload                            0x08000309   Thumb Code    28  init.o(.text)
    __scatterload_rt2                        0x08000309   Thumb Code     0  init.o(.text)
    __aeabi_llsl                             0x0800032d   Thumb Code    30  llshl.o(.text)
    _ll_shift_l                              0x0800032d   Thumb Code     0  llshl.o(.text)
    __aeabi_llsr                             0x0800034b   Thumb Code    32  llushr.o(.text)
    _ll_ushift_r                             0x0800034b   Thumb Code     0  llushr.o(.text)
    __decompress                             0x0800036b   Thumb Code     0  __dczerorl2.o(.text)
    __decompress1                            0x0800036b   Thumb Code    92  __dczerorl2.o(.text)
    AddNewTransactionToQue                   0x080003c9   Thumb Code   132  wers.o(i.AddNewTransactionToQue)
    BSP_InitForCC1100                        0x08000541   Thumb Code   172  bsp.o(i.BSP_InitForCC1100)
    BusFault_Handler                         0x08000679   Thumb Code     4  stm32f10x_it.o(i.BusFault_Handler)
    ButtonInit                               0x0800067d   Thumb Code    42  main.o(i.ButtonInit)
    CreateTimerEx                            0x080006e9   Thumb Code    88  dtimer.o(i.CreateTimerEx)
    DTimerInit                               0x08000745   Thumb Code   194  dtimer.o(i.DTimerInit)
    DebugMon_Handler                         0x08000819   Thumb Code     2  stm32f10x_it.o(i.DebugMon_Handler)
    DeleteTimer                              0x0800081d   Thumb Code    16  dtimer.o(i.DeleteTimer)
    EXTI0_IRQHandler                         0x08000831   Thumb Code    94  bsp.o(i.EXTI0_IRQHandler)
    EXTI1_IRQHandler                         0x0800089d   Thumb Code    86  stm32f10x_it.o(i.EXTI1_IRQHandler)
    EXTI_ClearITPendingBit                   0x08000901   Thumb Code     6  stm32f10x_exti.o(i.EXTI_ClearITPendingBit)
    EXTI_GetITStatus                         0x0800090d   Thumb Code    34  stm32f10x_exti.o(i.EXTI_GetITStatus)
    EXTI_Init                                0x08000935   Thumb Code   142  stm32f10x_exti.o(i.EXTI_Init)
    FLASH_GetStatus                          0x080009c9   Thumb Code    50  stm32f10x_flash.o(i.FLASH_GetStatus)
    FLASH_WaitForLastOperation               0x08000a01   Thumb Code    42  stm32f10x_flash.o(i.FLASH_WaitForLastOperation)
    Flash_Read                               0x08000a85   Thumb Code    22  flash.o(i.Flash_Read)
    Flash_Write                              0x08000aa1   Thumb Code   720  flash.o(i.Flash_Write)
    GPIO_EXTILineConfig                      0x08000e11   Thumb Code    60  stm32f10x_gpio.o(i.GPIO_EXTILineConfig)
    GPIO_Init                                0x08000e51   Thumb Code   274  stm32f10x_gpio.o(i.GPIO_Init)
    HardFault_Handler                        0x08000f63   Thumb Code     4  stm32f10x_it.o(i.HardFault_Handler)
    IWDG_Enable                              0x08000f69   Thumb Code    10  stm32f10x_iwdg.o(i.IWDG_Enable)
    IWDG_ReloadCounter                       0x08000f79   Thumb Code    10  stm32f10x_iwdg.o(i.IWDG_ReloadCounter)
    IWDG_SetPrescaler                        0x08000f89   Thumb Code     6  stm32f10x_iwdg.o(i.IWDG_SetPrescaler)
    IWDG_SetReload                           0x08000f95   Thumb Code     6  stm32f10x_iwdg.o(i.IWDG_SetReload)
    IWDG_WriteAccessCmd                      0x08000fa1   Thumb Code     6  stm32f10x_iwdg.o(i.IWDG_WriteAccessCmd)
    MILD_max                                 0x08000fad   Thumb Code    28  wers.o(i.MILD_max)
    MILD_min                                 0x08000fcd   Thumb Code    34  wers.o(i.MILD_min)
    MRFI_CheckSameSystemID                   0x08000ff5   Thumb Code    34  mrfi.o(i.MRFI_CheckSameSystemID)
    MRFI_DelayMs                             0x0800101d   Thumb Code    12  mrfi.o(i.MRFI_DelayMs)
    MRFI_EnableRxAddrFilter                  0x08001029   Thumb Code    42  mrfi.o(i.MRFI_EnableRxAddrFilter)
    MRFI_GetRadioState                       0x0800107d   Thumb Code     6  mrfi.o(i.MRFI_GetRadioState)
    MRFI_GpioIsr                             0x08001089   Thumb Code    40  mrfi.o(i.MRFI_GpioIsr)
    MRFI_Init                                0x080010b9   Thumb Code   518  mrfi.o(i.MRFI_Init)
    MRFI_RandomByte                          0x0800134d   Thumb Code    20  mrfi.o(i.MRFI_RandomByte)
    MRFI_Receive                             0x08001365   Thumb Code    16  mrfi.o(i.MRFI_Receive)
    MRFI_Rssi                                0x08001379   Thumb Code    86  mrfi.o(i.MRFI_Rssi)
    MRFI_RxAddrIsFiltered                    0x080013f1   Thumb Code    72  mrfi.o(i.MRFI_RxAddrIsFiltered)
    MRFI_RxCompleteISR                       0x08001445   Thumb Code    34  nwk_frame.o(i.MRFI_RxCompleteISR)
    MRFI_RxIdle                              0x08001491   Thumb Code    52  mrfi.o(i.MRFI_RxIdle)
    MRFI_RxOn                                0x080014e5   Thumb Code    52  mrfi.o(i.MRFI_RxOn)
    MRFI_SetLogicalChannel                   0x08001539   Thumb Code    56  mrfi.o(i.MRFI_SetLogicalChannel)
    MRFI_SetRxAddrFilter                     0x08001595   Thumb Code    48  mrfi.o(i.MRFI_SetRxAddrFilter)
    MRFI_Sleep                               0x080015e5   Thumb Code    40  mrfi.o(i.MRFI_Sleep)
    MRFI_Transmit                            0x08001611   Thumb Code   356  mrfi.o(i.MRFI_Transmit)
    MRFI_WakeUp                              0x080017a5   Thumb Code    92  mrfi.o(i.MRFI_WakeUp)
    MemManage_Handler                        0x0800180d   Thumb Code     4  stm32f10x_it.o(i.MemManage_Handler)
    NMI_Handler                              0x08001a2d   Thumb Code     4  stm32f10x_it.o(i.NMI_Handler)
    NVIC_Init                                0x08001a31   Thumb Code   102  misc.o(i.NVIC_Init)
    OSEventNameSet                           0x08001aa5   Thumb Code   140  os_core.o(i.OSEventNameSet)
    OSInit                                   0x08001b35   Thumb Code    52  os_core.o(i.OSInit)
    OSInitHookBegin                          0x08001b69   Thumb Code     8  os_cpu_c.o(i.OSInitHookBegin)
    OSInitHookEnd                            0x08001b75   Thumb Code     2  os_cpu_c.o(i.OSInitHookEnd)
    OSIntExit                                0x08001b79   Thumb Code   146  os_core.o(i.OSIntExit)
    OSQAccept                                0x08001c59   Thumb Code   106  os_q.o(i.OSQAccept)
    OSQCreate                                0x08001cc5   Thumb Code   150  os_q.o(i.OSQCreate)
    OSQPend                                  0x08001d69   Thumb Code   296  os_q.o(i.OSQPend)
    OSQPost                                  0x08001e9d   Thumb Code   120  os_q.o(i.OSQPost)
    OSSemCreate                              0x08001f15   Thumb Code    78  os_sem.o(i.OSSemCreate)
    OSSemPend                                0x08001f6d   Thumb Code   234  os_sem.o(i.OSSemPend)
    OSSemPost                                0x08002065   Thumb Code    94  os_sem.o(i.OSSemPost)
    OSStart                                  0x080020c5   Thumb Code    48  os_core.o(i.OSStart)
    OSStatInit                               0x0800210d   Thumb Code    62  os_core.o(i.OSStatInit)
    OSTCBInitHook                            0x08002159   Thumb Code     2  os_cpu_c.o(i.OSTCBInitHook)
    OSTaskCreate                             0x0800215d   Thumb Code   158  os_task.o(i.OSTaskCreate)
    OSTaskCreateExt                          0x08002209   Thumb Code   180  os_task.o(i.OSTaskCreateExt)
    OSTaskCreateHook                         0x080022c9   Thumb Code     2  os_cpu_c.o(i.OSTaskCreateHook)
    OSTaskIdleHook                           0x080022cb   Thumb Code     2  os_cpu_c.o(i.OSTaskIdleHook)
    OSTaskNameSet                            0x080022cd   Thumb Code   160  os_task.o(i.OSTaskNameSet)
    OSTaskStatHook                           0x08002379   Thumb Code     2  os_cpu_c.o(i.OSTaskStatHook)
    OSTaskStkChk                             0x0800237d   Thumb Code   150  os_task.o(i.OSTaskStkChk)
    OSTaskStkInit                            0x0800241d   Thumb Code   154  os_cpu_c.o(i.OSTaskStkInit)
    OSTaskSwHook                             0x080024b7   Thumb Code     2  os_cpu_c.o(i.OSTaskSwHook)
    OSTimeDly                                0x080024b9   Thumb Code    96  os_time.o(i.OSTimeDly)
    OSTimeTick                               0x08002529   Thumb Code   220  os_core.o(i.OSTimeTick)
    OSTimeTickHook                           0x0800261d   Thumb Code    30  os_cpu_c.o(i.OSTimeTickHook)
    OSTmrSignal                              0x08002641   Thumb Code    16  os_tmr.o(i.OSTmrSignal)
    OSTmr_Init                               0x08002655   Thumb Code   162  os_tmr.o(i.OSTmr_Init)
    OS_EventTOAbort                          0x080028cd   Thumb Code    76  os_core.o(i.OS_EventTOAbort)
    OS_EventTaskRdy                          0x0800291d   Thumb Code   202  os_core.o(i.OS_EventTaskRdy)
    OS_EventTaskWait                         0x080029f9   Thumb Code   112  os_core.o(i.OS_EventTaskWait)
    OS_EventWaitListInit                     0x08002a75   Thumb Code    28  os_core.o(i.OS_EventWaitListInit)
    OS_FlagInit                              0x08002a91   Thumb Code    68  os_flag.o(i.OS_FlagInit)
    OS_MemClr                                0x08002cc9   Thumb Code    18  os_core.o(i.OS_MemClr)
    OS_MemInit                               0x08002cdd   Thumb Code    68  os_mem.o(i.OS_MemInit)
    OS_QInit                                 0x08002d29   Thumb Code    48  os_q.o(i.OS_QInit)
    OS_Sched                                 0x08002d61   Thumb Code   120  os_core.o(i.OS_Sched)
    OS_StrCopy                               0x08002e4d   Thumb Code    28  os_core.o(i.OS_StrCopy)
    OS_StrLen                                0x08002e69   Thumb Code    20  os_core.o(i.OS_StrLen)
    OS_TCBInit                               0x08002e7d   Thumb Code   276  os_core.o(i.OS_TCBInit)
    OS_TaskIdle                              0x08002fa9   Thumb Code    32  os_core.o(i.OS_TaskIdle)
    OS_TaskStat                              0x08002fcd   Thumb Code   124  os_core.o(i.OS_TaskStat)
    OS_TaskStatStkChk                        0x0800305d   Thumb Code    54  os_core.o(i.OS_TaskStatStkChk)
    OS_TaskStkClr                            0x08003099   Thumb Code    26  os_task.o(i.OS_TaskStkClr)
    PendTransactionToQue                     0x080030b3   Thumb Code   248  wers.o(i.PendTransactionToQue)
    RCC_APB1PeriphClockCmd                   0x080031ad   Thumb Code    26  stm32f10x_rcc.o(i.RCC_APB1PeriphClockCmd)
    RCC_APB2PeriphClockCmd                   0x080031cd   Thumb Code    26  stm32f10x_rcc.o(i.RCC_APB2PeriphClockCmd)
    RCC_GetClocksFreq                        0x080031ed   Thumb Code   192  stm32f10x_rcc.o(i.RCC_GetClocksFreq)
    RFMacSemPend                             0x080032c1   Thumb Code    86  wers.o(i.RFMacSemPend)
    RF_SendRTS                               0x08003321   Thumb Code   142  wers.o(i.RF_SendRTS)
    RegMrfiIsr                               0x080033b1   Thumb Code    22  bsp.o(i.RegMrfiIsr)
    ResetReceive                             0x080033cd   Thumb Code    48  mrfi.o(i.ResetReceive)
    SMPL_Init                                0x080033fd   Thumb Code    70  nwk_api.o(i.SMPL_Init)
    SMPL_Ioctl                               0x08003449   Thumb Code   154  nwk_api.o(i.SMPL_Ioctl)
    SMPL_Link                                0x080034e3   Thumb Code    12  nwk_api.o(i.SMPL_Link)
    SMPL_LinkClose                           0x080034ef   Thumb Code    14  nwk_api.o(i.SMPL_LinkClose)
    SMPL_LinkListen                          0x080034fd   Thumb Code    22  nwk_api.o(i.SMPL_LinkListen)
    SMPL_Ping                                0x08003513   Thumb Code    12  nwk_api.o(i.SMPL_Ping)
    SMPL_Receive                             0x0800351f   Thumb Code    72  nwk_api.o(i.SMPL_Receive)
    SMPL_Reset                               0x08003569   Thumb Code    18  nwk_api.o(i.SMPL_Reset)
    SMPL_Send                                0x08003581   Thumb Code   112  nwk_api.o(i.SMPL_Send)
    SMPL_SendEx                              0x080035f1   Thumb Code   102  wers.o(i.SMPL_SendEx)
    SPI_CC1100_Init                          0x0800365d   Thumb Code   140  spi_cc1100.o(i.SPI_CC1100_Init)
    SPI_Cmd                                  0x080036f5   Thumb Code    24  stm32f10x_spi.o(i.SPI_Cmd)
    SPI_Init                                 0x0800370d   Thumb Code    60  stm32f10x_spi.o(i.SPI_Init)
    SPI_RxTxByte                             0x08003749   Thumb Code    38  spi_cc1100.o(i.SPI_RxTxByte)
    STM_EVAL_COMInit                         0x08003775   Thumb Code   138  stm32_eval.o(i.STM_EVAL_COMInit)
    STM_EVAL_LEDInit                         0x08003819   Thumb Code    58  stm32_eval.o(i.STM_EVAL_LEDInit)
    STM_EVAL_LEDOff                          0x08003861   Thumb Code    30  stm32_eval.o(i.STM_EVAL_LEDOff)
    STM_EVAL_LEDOn                           0x08003889   Thumb Code    16  stm32_eval.o(i.STM_EVAL_LEDOn)
    STM_EVAL_LEDSet                          0x080038a1   Thumb Code    64  stm32_eval.o(i.STM_EVAL_LEDSet)
    STM_EVAL_LEDToggle                       0x080038e9   Thumb Code    26  stm32_eval.o(i.STM_EVAL_LEDToggle)
    SVC_Handler                              0x0800390d   Thumb Code     2  stm32f10x_it.o(i.SVC_Handler)
    SearchTransactionGUID                    0x0800390f   Thumb Code    68  wers.o(i.SearchTransactionGUID)
    SendDataToPC                             0x08003955   Thumb Code    48  wers.o(i.SendDataToPC)
    StartTimer                               0x08003a61   Thumb Code    16  dtimer.o(i.StartTimer)
    SysTick_Handler                          0x08003a75   Thumb Code    34  stm32f10x_it.o(i.SysTick_Handler)
    SystemInit                               0x08003a9d   Thumb Code   148  system_stm32f10x.o(i.SystemInit)
    TIM3_IRQHandler                          0x08003b49   Thumb Code   186  dtimer.o(i.TIM3_IRQHandler)
    TIM_Cmd                                  0x08003c15   Thumb Code    24  stm32f10x_tim.o(i.TIM_Cmd)
    TIM_ITConfig                             0x08003c2d   Thumb Code    24  stm32f10x_tim.o(i.TIM_ITConfig)
    TIM_OC1Init                              0x08003c45   Thumb Code   110  stm32f10x_tim.o(i.TIM_OC1Init)
    TIM_TimeBaseInit                         0x08003cbd   Thumb Code    50  stm32f10x_tim.o(i.TIM_TimeBaseInit)
    USART1_IRQHandler                        0x08003cf9   Thumb Code    50  bsp.o(i.USART1_IRQHandler)
    USART_Cmd                                0x08003d35   Thumb Code    24  stm32f10x_usart.o(i.USART_Cmd)
    USART_GetFlagStatus                      0x08003d4d   Thumb Code    26  stm32f10x_usart.o(i.USART_GetFlagStatus)
    USART_ITConfig                           0x08003d67   Thumb Code    74  stm32f10x_usart.o(i.USART_ITConfig)
    USART_Init                               0x08003db1   Thumb Code   156  stm32f10x_usart.o(i.USART_Init)
    USART_SendData                           0x08003e51   Thumb Code     8  stm32f10x_usart.o(i.USART_SendData)
    UsageFault_Handler                       0x08003e59   Thumb Code     4  stm32f10x_it.o(i.UsageFault_Handler)
    WERS485RecevieTask                       0x08003e5d   Thumb Code    82  wers.o(i.WERS485RecevieTask)
    WERS485Send                              0x08003eb5   Thumb Code    90  wers.o(i.WERS485Send)
    WERSAPCmd                                0x08003f11   Thumb Code   438  wers.o(i.WERSAPCmd)
    WERSExTask                               0x080040e9   Thumb Code   902  wers.o(i.WERSExTask)
    WERSGenerate_RF_GUID                     0x080045a5   Thumb Code     8  wers.o(i.WERSGenerate_RF_GUID)
    WERSGetDeviceAddress                     0x080045ad   Thumb Code    18  wers.o(i.WERSGetDeviceAddress)
    WERSMsTimeGet                            0x080045c1   Thumb Code    20  wers.o(i.WERSMsTimeGet)
    WERSMsTimeSet                            0x080045dd   Thumb Code    22  wers.o(i.WERSMsTimeSet)
    WERSPCDataProcess                        0x080045fd   Thumb Code   214  wers.o(i.WERSPCDataProcess)
    WERSPCPridge                             0x080046d5   Thumb Code   334  wers.o(i.WERSPCPridge)
    WERSRFReceiverTask                       0x080048d1   Thumb Code   154  wers.o(i.WERSRFReceiverTask)
    WERSResponseCTS                          0x080049cd   Thumb Code    68  wers.o(i.WERSResponseCTS)
    WERSSendDataAck                          0x08004a11   Thumb Code   112  wers.o(i.WERSSendDataAck)
    WERSSetDeviceAddress                     0x08004a81   Thumb Code    18  wers.o(i.WERSSetDeviceAddress)
    WERSTimerISR                             0x08004a95   Thumb Code    32  wers.o(i.WERSTimerISR)
    WERS_RandomDelay                         0x08004c0d   Thumb Code    58  wers.o(i.WERS_RandomDelay)
    WERS_Transmit                            0x08004c49   Thumb Code   380  wers.o(i.WERS_Transmit)
    WERS_init                                0x08004dd5   Thumb Code    20  wers.o(i.WERS_init)
    WatchDogInit                             0x08004e41   Thumb Code    70  rf_wd.o(i.WatchDogInit)
    __0printf$8                              0x08004e91   Thumb Code    22  printf8.o(i.__0printf$8)
    __1printf$8                              0x08004e91   Thumb Code     0  printf8.o(i.__0printf$8)
    __2printf                                0x08004e91   Thumb Code     0  printf8.o(i.__0printf$8)
    __scatterload_copy                       0x08004eb1   Thumb Code    14  handlers.o(i.__scatterload_copy)
    __scatterload_null                       0x08004ebf   Thumb Code     2  handlers.o(i.__scatterload_null)
    __scatterload_zeroinit                   0x08004ec1   Thumb Code    14  handlers.o(i.__scatterload_zeroinit)
    broadcast_nwk_reset                      0x08005349   Thumb Code    60  nwk_mgmt.o(i.broadcast_nwk_reset)
    broadcast_nwk_search_server              0x0800538d   Thumb Code    60  nwk_mgmt.o(i.broadcast_nwk_search_server)
    cal_crc                                  0x080053d1   Thumb Code    62  wers.o(i.cal_crc)
    fmemcmp                                  0x0800557d   Thumb Code    52  flash.o(i.fmemcmp)
    fputc                                    0x080055b1   Thumb Code    58  uart.o(i.fputc)
    init_485_uart                            0x08005601   Thumb Code    76  uart.o(i.init_485_uart)
    init_dbguart                             0x08005655   Thumb Code    32  uart.o(i.init_dbguart)
    isDupSandFFrame                          0x080056b9   Thumb Code   116  nwk_frame.o(i.isDupSandFFrame)
    mDelay                                   0x0800572d   Thumb Code    34  dtimer.o(i.mDelay)
    main                                     0x08005755   Thumb Code    36  main.o(i.main)
    mrfiSpiCmdStrobe                         0x080057bd   Thumb Code    68  mrfi.o(i.mrfiSpiCmdStrobe)
    mrfiSpiInit                              0x08005809   Thumb Code    14  mrfi.o(i.mrfiSpiInit)
    mrfiSpiReadReg                           0x0800581d   Thumb Code    16  mrfi.o(i.mrfiSpiReadReg)
    mrfiSpiReadRxFifo                        0x0800582d   Thumb Code    18  mrfi.o(i.mrfiSpiReadRxFifo)
    mrfiSpiWriteReg                          0x0800583f   Thumb Code    16  mrfi.o(i.mrfiSpiWriteReg)
    mrfiSpiWriteTxFifo                       0x0800584f   Thumb Code    18  mrfi.o(i.mrfiSpiWriteTxFifo)
    mrfi_delay                               0x08005861   Thumb Code    10  mrfi.o(i.mrfi_delay)
    nwk_CTS_process                          0x0800586d   Thumb Code   152  nwk_mgmt.o(i.nwk_CTS_process)
    nwk_DS_process                           0x08005909   Thumb Code    40  nwk_mgmt.o(i.nwk_DS_process)
    nwk_Data_Ack_process                     0x08005935   Thumb Code    64  nwk_mgmt.o(i.nwk_Data_Ack_process)
    nwk_QInit                                0x08005979   Thumb Code    24  nwk_qmgmt.o(i.nwk_QInit)
    nwk_QadjustOrder                         0x08005999   Thumb Code    70  nwk_qmgmt.o(i.nwk_QadjustOrder)
    nwk_QfindOldest                          0x080059e5   Thumb Code   320  nwk_qmgmt.o(i.nwk_QfindOldest)
    nwk_QfindSlot                            0x08005b29   Thumb Code   152  nwk_qmgmt.o(i.nwk_QfindSlot)
    nwk_RTS_process                          0x08005bc9   Thumb Code    92  nwk_mgmt.o(i.nwk_RTS_process)
    nwk_ResetSet                             0x08005c29   Thumb Code     6  nwk.o(i.nwk_ResetSet)
    nwk_SendEmptyPollRspFrame                0x08005c35   Thumb Code   168  nwk_frame.o(i.nwk_SendEmptyPollRspFrame)
    nwk_allocateLocalRxPort                  0x08005ce5   Thumb Code   232  nwk.o(i.nwk_allocateLocalRxPort)
    nwk_buildFrame                           0x08005dd1   Thumb Code   136  nwk_frame.o(i.nwk_buildFrame)
    nwk_checkConnInfo                        0x08005e65   Thumb Code    34  nwk.o(i.nwk_checkConnInfo)
    nwk_connectionControl                    0x08005e87   Thumb Code    48  nwk_ioctl.o(i.nwk_connectionControl)
    nwk_deviceAddress                        0x08005eb7   Thumb Code    38  nwk_ioctl.o(i.nwk_deviceAddress)
    nwk_findAlreadyJoined                    0x08005edd   Thumb Code    52  nwk.o(i.nwk_findAlreadyJoined)
    nwk_frameInit                            0x08005f15   Thumb Code    38  nwk_frame.o(i.nwk_frameInit)
    nwk_freeConnection                       0x08005f51   Thumb Code     6  nwk.o(i.nwk_freeConnection)
    nwk_freeConnectionEx                     0x08005f59   Thumb Code    58  nwk.o(i.nwk_freeConnectionEx)
    nwk_freqInit                             0x08005fad   Thumb Code     2  nwk_freq.o(i.nwk_freqInit)
    nwk_getBCastAddress                      0x08005fb1   Thumb Code     4  nwk_globals.o(i.nwk_getBCastAddress)
    nwk_getConnInfo                          0x08005fb9   Thumb Code    58  nwk.o(i.nwk_getConnInfo)
    nwk_getLocalLinkID                       0x08005ff9   Thumb Code    72  nwk_link.o(i.nwk_getLocalLinkID)
    nwk_getMyAddress                         0x08006049   Thumb Code    14  nwk_globals.o(i.nwk_getMyAddress)
    nwk_getMyRxType                          0x08006065   Thumb Code     6  nwk_frame.o(i.nwk_getMyRxType)
    nwk_getNextConnection                    0x08006071   Thumb Code    74  nwk.o(i.nwk_getNextConnection)
    nwk_getQ                                 0x080060c1   Thumb Code    14  nwk_qmgmt.o(i.nwk_getQ)
    nwk_getSandFFrame                        0x080060d9   Thumb Code    98  nwk_frame.o(i.nwk_getSandFFrame)
    nwk_getServerAddress                     0x0800613d   Thumb Code     4  nwk_globals.o(i.nwk_getServerAddress)
    nwk_globalsInit                          0x08006145   Thumb Code    22  nwk_globals.o(i.nwk_globalsInit)
    nwk_isConnectionValid                    0x08006169   Thumb Code    84  nwk.o(i.nwk_isConnectionValid)
    nwk_isLinkDuplicate                      0x080061c1   Thumb Code    62  nwk.o(i.nwk_isLinkDuplicate)
    nwk_isLinked                             0x08006205   Thumb Code    46  nwk.o(i.nwk_isLinked)
    nwk_isSandFClient                        0x08006239   Thumb Code    42  nwk_join.o(i.nwk_isSandFClient)
    nwk_isValidReply                         0x08006269   Thumb Code    72  nwk.o(i.nwk_isValidReply)
    nwk_join                                 0x080062b1   Thumb Code    12  nwk_join.o(i.nwk_join)
    nwk_joinContext                          0x080062d5   Thumb Code    24  nwk_ioctl.o(i.nwk_joinContext)
    nwk_joinInit                             0x080062ed   Thumb Code    42  nwk_join.o(i.nwk_joinInit)
    nwk_link                                 0x08006331   Thumb Code   328  nwk_link.o(i.nwk_link)
    nwk_linkClose                            0x08006485   Thumb Code    12  nwk_link.o(i.nwk_linkClose)
    nwk_linkInit                             0x08006491   Thumb Code    44  nwk_link.o(i.nwk_linkInit)
    nwk_mgmtInit                             0x080064d1   Thumb Code    12  nwk_mgmt.o(i.nwk_mgmtInit)
    nwk_nwkInit                              0x080064e1   Thumb Code   134  nwk.o(i.nwk_nwkInit)
    nwk_ping                                 0x08006571   Thumb Code   202  nwk_ping.o(i.nwk_ping)
    nwk_pingInit                             0x08006641   Thumb Code    12  nwk_ping.o(i.nwk_pingInit)
    nwk_processFreq                          0x08006651   Thumb Code     6  nwk_freq.o(i.nwk_processFreq)
    nwk_processJoin                          0x08006659   Thumb Code    56  nwk_join.o(i.nwk_processJoin)
    nwk_processLink                          0x08006699   Thumb Code    54  nwk_link.o(i.nwk_processLink)
    nwk_processMgmt                          0x080066d9   Thumb Code   102  nwk_mgmt.o(i.nwk_processMgmt)
    nwk_processPing                          0x08006781   Thumb Code    62  nwk_ping.o(i.nwk_processPing)
    nwk_processSecurity                      0x080067d5   Thumb Code     6  nwk_security.o(i.nwk_processSecurity)
    nwk_radioControl                         0x080067db   Thumb Code   110  nwk_ioctl.o(i.nwk_radioControl)
    nwk_rawReceive                           0x08006849   Thumb Code    36  nwk_ioctl.o(i.nwk_rawReceive)
    nwk_rawSend                              0x0800686d   Thumb Code    72  nwk_ioctl.o(i.nwk_rawSend)
    nwk_retrieveFrame                        0x080068b5   Thumb Code   144  nwk_frame.o(i.nwk_retrieveFrame)
    nwk_saveJoinedDevice                     0x08006945   Thumb Code    78  nwk.o(i.nwk_saveJoinedDevice)
    nwk_securityInit                         0x08006999   Thumb Code     2  nwk_security.o(i.nwk_securityInit)
    nwk_sendFrame                            0x0800699d   Thumb Code    48  nwk_frame.o(i.nwk_sendFrame)
    nwk_setAPAddress                         0x080069d1   Thumb Code     8  nwk_globals.o(i.nwk_setAPAddress)
    nwk_setJoinContext                       0x080069dd   Thumb Code    16  nwk_join.o(i.nwk_setJoinContext)
    nwk_setLinkToken                         0x080069f1   Thumb Code     8  nwk_link.o(i.nwk_setLinkToken)
    nwk_setListenContext                     0x080069fd   Thumb Code    14  nwk_link.o(i.nwk_setListenContext)
    nwk_setMyAddress                         0x08006a11   Thumb Code    20  nwk_globals.o(i.nwk_setMyAddress)
    resend_request_process                   0x08006b69   Thumb Code    72  nwk_mgmt.o(i.resend_request_process)
    rf_mem_free                              0x08006bb5   Thumb Code   102  rf_mem.o(i.rf_mem_free)
    rf_mem_init                              0x08006c5d   Thumb Code    62  rf_mem.o(i.rf_mem_init)
    rf_mem_malloc                            0x08006ca9   Thumb Code   268  rf_mem.o(i.rf_mem_malloc)
    tmrMsTimeGet                             0x080075a1   Thumb Code     6  dtimer.o(i.tmrMsTimeGet)
    uDelay                                   0x080075ad   Thumb Code    18  dtimer.o(i.uDelay)
    GPIO_PIN                                 0x08007624   Data           8  stm32_eval.o(.constdata)
    GPIO_CLK                                 0x0800762c   Data          16  stm32_eval.o(.constdata)
    BUTTON_PIN                               0x0800763c   Data          16  stm32_eval.o(.constdata)
    BUTTON_CLK                               0x0800764c   Data          32  stm32_eval.o(.constdata)
    BUTTON_EXTI_LINE                         0x0800766c   Data          16  stm32_eval.o(.constdata)
    BUTTON_PORT_SOURCE                       0x0800767c   Data          16  stm32_eval.o(.constdata)
    BUTTON_PIN_SOURCE                        0x0800768c   Data          16  stm32_eval.o(.constdata)
    BUTTON_IRQn                              0x0800769c   Data          16  stm32_eval.o(.constdata)
    COM_USART_CLK                            0x080076ac   Data          12  stm32_eval.o(.constdata)
    COM_POR_CLK                              0x080076b8   Data          12  stm32_eval.o(.constdata)
    COM_TX_PIN                               0x080076c4   Data           6  stm32_eval.o(.constdata)
    COM_RX_PIN                               0x080076ca   Data           6  stm32_eval.o(.constdata)
    mrfiBroadcastAddr                        0x0800770e   Data           4  mrfi.o(.constdata)
    VersionString                            0x080077ac   Data          19  nwk_globals.o(.constdata)
    callBackfunc                             0x080077c0   Data           8  wers.o(.constdata)
    crc8_ta                                  0x080077c8   Data         256  wers.o(.constdata)
    OSUnMapTbl                               0x08007931   Data         256  os_core.o(.constdata)
    Region$$Table$$Base                      0x08007a98   Number         0  anon$$obj.o(Region$$Table)
    Region$$Table$$Limit                     0x08007ab8   Number         0  anon$$obj.o(Region$$Table)
    GPIO_PORT                                0x20000004   Data          16  stm32_eval.o(.data)
    BUTTON_PORT                              0x20000014   Data          32  stm32_eval.o(.data)
    COM_USART                                0x20000034   Data          12  stm32_eval.o(.data)
    COM_PORT                                 0x20000040   Data          12  stm32_eval.o(.data)
    g_intr_idle                              0x20000064   Data           4  mrfi.o(.data)
    g_mrfi_rssi                              0x20000068   Data           1  mrfi.o(.data)
    g_mrfi_LQI                               0x20000069   Data           1  mrfi.o(.data)
    g_CRCfailedPacketNumber                  0x2000006c   Data           4  mrfi.o(.data)
    g_MismatchLengthNumber                   0x20000070   Data           4  mrfi.o(.data)
    g_ReceiveNotEmptyPacketNumber            0x20000074   Data           4  mrfi.o(.data)
    gs_pReset                                0x20000718   Data           4  nwk.o(.data)
    g_RTS_process_flag                       0x2000074d   Data           1  nwk_globals.o(.data)
    g_MyNodeType                             0x20000762   Data           1  nwk_join.o(.data)
    gs_DeviceState                           0x200007bc   Data           1  wers.o(.data)
    g_NeedReset                              0x200007c0   Data           4  wers.o(.data)
    g_pSemCTS                                0x200007c4   Data           4  wers.o(.data)
    g_p485PollSem                            0x200007c8   Data           4  wers.o(.data)
    g_pSem485Bridge                          0x200007cc   Data           4  wers.o(.data)
    g_p485DataAckSem                         0x200007d0   Data           4  wers.o(.data)
    g_pDataRecevieOkSem                      0x200007d4   Data           4  wers.o(.data)
    g_pDataComingSem                         0x200007d8   Data           4  wers.o(.data)
    g_485AckGUID                             0x200007dc   Data           4  wers.o(.data)
    g_WERSSystemId                           0x200007e4   Data           2  wers.o(.data)
    g_NotifyCode                             0x200007e8   Data           4  wers.o(.data)
    g_DataAckGUID                            0x200007ec   Data           4  wers.o(.data)
    g_485NotifyCode                          0x200007f0   Data           4  wers.o(.data)
    g_BackOffBegintime                       0x200007f4   Data           4  wers.o(.data)
    g_485BackOffBegintime                    0x200007f8   Data           4  wers.o(.data)
    g_RFBackOfftime                          0x200007fc   Data           4  wers.o(.data)
    g_getCTS                                 0x20000800   Data           4  wers.o(.data)
    g_ApInitOk                               0x20000804   Data           4  wers.o(.data)
    g_ApTaskCondition                        0x20000808   Data           4  wers.o(.data)
    g_timerID                                0x20000824   Data           4  wers.o(.data)
    g_WatchDogTimerID                        0x20000828   Data           4  rf_wd.o(.data)
    OSCtxSwCtr                               0x20000838   Data           4  os_core.o(.data)
    OSEventFreeList                          0x2000083c   Data           4  os_core.o(.data)
    OSFlagFreeList                           0x20000840   Data           4  os_core.o(.data)
    OSCPUUsage                               0x20000844   Data           1  os_core.o(.data)
    OSIdleCtrMax                             0x20000848   Data           4  os_core.o(.data)
    OSIdleCtrRun                             0x2000084c   Data           4  os_core.o(.data)
    OSStatRdy                                0x20000850   Data           1  os_core.o(.data)
    OSIntNesting                             0x20000851   Data           1  os_core.o(.data)
    OSLockNesting                            0x20000852   Data           1  os_core.o(.data)
    OSPrioCur                                0x20000853   Data           1  os_core.o(.data)
    OSPrioHighRdy                            0x20000854   Data           1  os_core.o(.data)
    OSRdyGrp                                 0x20000855   Data           1  os_core.o(.data)
    OSRdyTbl                                 0x20000856   Data           4  os_core.o(.data)
    OSRunning                                0x2000085a   Data           1  os_core.o(.data)
    OSTaskCtr                                0x2000085b   Data           1  os_core.o(.data)
    OSIdleCtr                                0x2000085c   Data           4  os_core.o(.data)
    OSTCBCur                                 0x20000860   Data           4  os_core.o(.data)
    OSTCBFreeList                            0x20000864   Data           4  os_core.o(.data)
    OSTCBHighRdy                             0x20000868   Data           4  os_core.o(.data)
    OSTCBList                                0x2000086c   Data           4  os_core.o(.data)
    OSTickStepState                          0x20000870   Data           1  os_core.o(.data)
    OSMemFreeList                            0x20000874   Data           4  os_core.o(.data)
    OSQFreeList                              0x20000878   Data           4  os_core.o(.data)
    OSTime                                   0x2000087c   Data           4  os_core.o(.data)
    OSTmrFree                                0x20000880   Data           2  os_core.o(.data)
    OSTmrUsed                                0x20000882   Data           2  os_core.o(.data)
    OSTmrTime                                0x20000884   Data           4  os_core.o(.data)
    OSTmrSem                                 0x20000888   Data           4  os_core.o(.data)
    OSTmrSemSignal                           0x2000088c   Data           4  os_core.o(.data)
    OSTmrFreeList                            0x20000890   Data           4  os_core.o(.data)
    __stdout                                 0x20000894   Data           4  stdout.o(.data)
    AppTaskStartStk                          0x20000898   Data         384  main.o(.bss)
    gg_buf                                   0x20000a18   Data          32  main.o(.bss)
    g_stimer                                 0x20000a38   Data          64  dtimer.o(.bss)
    g_InitStruct                             0x20001278   Data          16  uart.o(.bss)
    sServiceLinkID                           0x20003ed8   Data         128  nwk_link.o(.bss)
    g_st485GetTransaction                    0x200044a0   Data         240  wers.o(.bss)
    g_stWERSGetTransaction                   0x20004590   Data         240  wers.o(.bss)
    sWERSInFrameQ                            0x20004680   Data         768  wers.o(.bss)
    sWERSTransactionInQ                      0x20004980   Data         384  wers.o(.bss)
    gRFReceiverStack                         0x20004b00   Data        1024  wers.o(.bss)
    g485SendTaskStack                        0x20004f00   Data        1024  wers.o(.bss)
    g485BridgeTaskStack                      0x20005300   Data        1024  wers.o(.bss)
    gRFBridgeTaskStack                       0x20005700   Data        1024  wers.o(.bss)
    g485RecevieTaskStack                     0x20005b00   Data        1024  wers.o(.bss)
    g485SendCheckStack                       0x20005f00   Data        1024  wers.o(.bss)
    g485PollTaskStack                        0x20006300   Data        1024  wers.o(.bss)
    WERSEDBgroundTaskStk                     0x20006700   Data         384  wers.o(.bss)
    OSEventTbl                               0x2000798c   Data        1280  os_core.o(.bss)
    OSFlagTbl                                0x20007e8c   Data         140  os_core.o(.bss)
    OSTaskStatStk                            0x20007f18   Data         256  os_core.o(.bss)
    OSTaskIdleStk                            0x20008018   Data         256  os_core.o(.bss)
    OSTCBPrioTbl                             0x20008118   Data         128  os_core.o(.bss)
    OSTCBTbl                                 0x20008198   Data        2816  os_core.o(.bss)
    OSMemTbl                                 0x20008c98   Data         180  os_core.o(.bss)
    OSQTbl                                   0x20008d4c   Data         360  os_core.o(.bss)
    OSTmrTbl                                 0x20008eb4   Data         832  os_core.o(.bss)
    OSTmrTaskStk                             0x200091f4   Data         256  os_core.o(.bss)
    OSTmrWheelTbl                            0x200092f4   Data          64  os_core.o(.bss)
    __initial_sp                             0x20009438   Data           0  startup_stm32f10x_hd.o(STACK)



==============================================================================

Memory Map of the image

  Image Entry point : 0x08000131

  Load Region LR_IROM1 (Base: 0x08000000, Size: 0x00008350, Max: 0x00100000, ABSOLUTE, COMPRESSED[0x00007b34])

    Execution Region ER_IROM1 (Base: 0x08000000, Size: 0x00007ab8, Max: 0x00100000, ABSOLUTE)

    Base Addr    Size         Type   Attr      Idx    E Section Name        Object

    0x08000000   0x00000130   Data   RO          610    RESET               startup_stm32f10x_hd.o
    0x08000130   0x00000000   Code   RO         6123  * .ARM.Collect$$$$00000000  mc_w.l(entry.o)
    0x08000130   0x00000004   Code   RO         6399    .ARM.Collect$$$$00000001  mc_w.l(entry2.o)
    0x08000134   0x00000004   Code   RO         6402    .ARM.Collect$$$$00000004  mc_w.l(entry5.o)
    0x08000138   0x00000000   Code   RO         6404    .ARM.Collect$$$$00000008  mc_w.l(entry7b.o)
    0x08000138   0x00000008   Code   RO         6405    .ARM.Collect$$$$00000009  mc_w.l(entry8.o)
    0x08000140   0x00000004   Code   RO         6400    .ARM.Collect$$$$00002712  mc_w.l(entry2.o)
    0x08000144   0x00000018   Code   RO            1    .emb_text           main.o
    0x0800015c   0x00000030   Code   RO          611    .text               startup_stm32f10x_hd.o
    0x0800018c   0x000000b0   Code   RO         5347    .text               os_cpu_a.o
    0x0800023c   0x00000028   Code   RO         6126    .text               mc_w.l(memcpy.o)
    0x08000264   0x00000026   Code   RO         6130    .text               mc_w.l(memseta.o)
    0x0800028a   0x0000001a   Code   RO         6132    .text               mc_w.l(memcmp.o)
    0x080002a4   0x00000062   Code   RO         6409    .text               mc_w.l(uldiv.o)
    0x08000306   0x00000002   PAD
    0x08000308   0x00000024   Code   RO         6422    .text               mc_w.l(init.o)
    0x0800032c   0x0000001e   Code   RO         6424    .text               mc_w.l(llshl.o)
    0x0800034a   0x00000020   Code   RO         6426    .text               mc_w.l(llushr.o)
    0x0800036a   0x0000005c   Code   RO         6440    .text               mc_w.l(__dczerorl2.o)
    0x080003c6   0x00000002   PAD
    0x080003c8   0x00000098   Code   RO         4681    i.AddNewTransactionToQue  wers.o
    0x08000460   0x000000e0   Code   RO            2    i.AppTaskStart      main.o
    0x08000540   0x000000c0   Code   RO         3859    i.BSP_InitForCC1100  bsp.o
    0x08000600   0x00000038   Code   RO         4682    i.BackOffTimeOut    wers.o
    0x08000638   0x00000040   Code   RO         4683    i.BackOffTimeOutEx  wers.o
    0x08000678   0x00000004   Code   RO          252    i.BusFault_Handler  stm32f10x_it.o
    0x0800067c   0x00000030   Code   RO            4    i.ButtonInit        main.o
    0x080006ac   0x0000003c   Code   RO         4685    i.CheckTimeOut      wers.o
    0x080006e8   0x0000005c   Code   RO          328    i.CreateTimerEx     dtimer.o
    0x08000744   0x000000d4   Code   RO          329    i.DTimerInit        dtimer.o
    0x08000818   0x00000002   Code   RO          253    i.DebugMon_Handler  stm32f10x_it.o
    0x0800081a   0x00000002   PAD
    0x0800081c   0x00000014   Code   RO          330    i.DeleteTimer       dtimer.o
    0x08000830   0x0000006c   Code   RO         3860    i.EXTI0_IRQHandler  bsp.o
    0x0800089c   0x00000064   Code   RO          254    i.EXTI1_IRQHandler  stm32f10x_it.o
    0x08000900   0x0000000c   Code   RO         1308    i.EXTI_ClearITPendingBit  stm32f10x_exti.o
    0x0800090c   0x00000028   Code   RO         1312    i.EXTI_GetITStatus  stm32f10x_exti.o
    0x08000934   0x00000094   Code   RO         1313    i.EXTI_Init         stm32f10x_exti.o
    0x080009c8   0x00000038   Code   RO         1369    i.FLASH_GetStatus   stm32f10x_flash.o
    0x08000a00   0x0000002a   Code   RO         1383    i.FLASH_WaitForLastOperation  stm32f10x_flash.o
    0x08000a2a   0x00000002   PAD
    0x08000a2c   0x00000058   Code   RO          428    i.Flash_ErasePage   flash.o
    0x08000a84   0x0000001c   Code   RO          430    i.Flash_Read        flash.o
    0x08000aa0   0x000002e4   Code   RO          431    i.Flash_Write       flash.o
    0x08000d84   0x0000008c   Code   RO          432    i.Flash_WritePage   flash.o
    0x08000e10   0x00000040   Code   RO         1633    i.GPIO_EXTILineConfig  stm32f10x_gpio.o
    0x08000e50   0x00000112   Code   RO         1636    i.GPIO_Init         stm32f10x_gpio.o
    0x08000f62   0x00000004   Code   RO          255    i.HardFault_Handler  stm32f10x_it.o
    0x08000f66   0x00000002   PAD
    0x08000f68   0x00000010   Code   RO         1945    i.IWDG_Enable       stm32f10x_iwdg.o
    0x08000f78   0x00000010   Code   RO         1947    i.IWDG_ReloadCounter  stm32f10x_iwdg.o
    0x08000f88   0x0000000c   Code   RO         1948    i.IWDG_SetPrescaler  stm32f10x_iwdg.o
    0x08000f94   0x0000000c   Code   RO         1949    i.IWDG_SetReload    stm32f10x_iwdg.o
    0x08000fa0   0x0000000c   Code   RO         1950    i.IWDG_WriteAccessCmd  stm32f10x_iwdg.o
    0x08000fac   0x00000020   Code   RO         4690    i.MILD_max          wers.o
    0x08000fcc   0x00000028   Code   RO         4691    i.MILD_min          wers.o
    0x08000ff4   0x00000028   Code   RO         3589    i.MRFI_CheckSameSystemID  mrfi.o
    0x0800101c   0x0000000c   Code   RO         3590    i.MRFI_DelayMs      mrfi.o
    0x08001028   0x00000054   Code   RO         3592    i.MRFI_EnableRxAddrFilter  mrfi.o
    0x0800107c   0x0000000c   Code   RO         3593    i.MRFI_GetRadioState  mrfi.o
    0x08001088   0x00000030   Code   RO         3594    i.MRFI_GpioIsr      mrfi.o
    0x080010b8   0x00000294   Code   RO         3595    i.MRFI_Init         mrfi.o
    0x0800134c   0x00000018   Code   RO         3596    i.MRFI_RandomByte   mrfi.o
    0x08001364   0x00000014   Code   RO         3597    i.MRFI_Receive      mrfi.o
    0x08001378   0x00000078   Code   RO         3598    i.MRFI_Rssi         mrfi.o
    0x080013f0   0x00000054   Code   RO         3600    i.MRFI_RxAddrIsFiltered  mrfi.o
    0x08001444   0x0000004c   Code   RO         4147    i.MRFI_RxCompleteISR  nwk_frame.o
    0x08001490   0x00000054   Code   RO         3601    i.MRFI_RxIdle       mrfi.o
    0x080014e4   0x00000054   Code   RO         3602    i.MRFI_RxOn         mrfi.o
    0x08001538   0x0000005c   Code   RO         3603    i.MRFI_SetLogicalChannel  mrfi.o
    0x08001594   0x00000050   Code   RO         3604    i.MRFI_SetRxAddrFilter  mrfi.o
    0x080015e4   0x0000002c   Code   RO         3605    i.MRFI_Sleep        mrfi.o
    0x08001610   0x00000194   Code   RO         3606    i.MRFI_Transmit     mrfi.o
    0x080017a4   0x00000068   Code   RO         3607    i.MRFI_WakeUp       mrfi.o
    0x0800180c   0x00000004   Code   RO          256    i.MemManage_Handler  stm32f10x_it.o
    0x08001810   0x00000030   Code   RO         3608    i.Mrfi_CalculateRssi  mrfi.o
    0x08001840   0x00000018   Code   RO         3609    i.Mrfi_DelayUsec    mrfi.o
    0x08001858   0x00000028   Code   RO         3610    i.Mrfi_RandomBackoffDelay  mrfi.o
    0x08001880   0x00000034   Code   RO         3611    i.Mrfi_RxModeOff    mrfi.o
    0x080018b4   0x0000002c   Code   RO         3612    i.Mrfi_RxModeOn     mrfi.o
    0x080018e0   0x0000014c   Code   RO         3613    i.Mrfi_SyncPinRxIsr  mrfi.o
    0x08001a2c   0x00000004   Code   RO          257    i.NMI_Handler       stm32f10x_it.o
    0x08001a30   0x00000074   Code   RO          615    i.NVIC_Init         misc.o
    0x08001aa4   0x00000090   Code   RO         5354    i.OSEventNameSet    os_core.o
    0x08001b34   0x00000034   Code   RO         5355    i.OSInit            os_core.o
    0x08001b68   0x0000000c   Code   RO         5263    i.OSInitHookBegin   os_cpu_c.o
    0x08001b74   0x00000002   Code   RO         5264    i.OSInitHookEnd     os_cpu_c.o
    0x08001b76   0x00000002   PAD
    0x08001b78   0x000000e0   Code   RO         5357    i.OSIntExit         os_core.o
    0x08001c58   0x0000006a   Code   RO         5783    i.OSQAccept         os_q.o
    0x08001cc2   0x00000002   PAD
    0x08001cc4   0x000000a4   Code   RO         5784    i.OSQCreate         os_q.o
    0x08001d68   0x00000134   Code   RO         5787    i.OSQPend           os_q.o
    0x08001e9c   0x00000078   Code   RO         5789    i.OSQPost           os_q.o
    0x08001f14   0x00000058   Code   RO         5856    i.OSSemCreate       os_sem.o
    0x08001f6c   0x000000f8   Code   RO         5858    i.OSSemPend         os_sem.o
    0x08002064   0x0000005e   Code   RO         5860    i.OSSemPost         os_sem.o
    0x080020c2   0x00000002   PAD
    0x080020c4   0x00000048   Code   RO         5360    i.OSStart           os_core.o
    0x0800210c   0x0000004c   Code   RO         5361    i.OSStatInit        os_core.o
    0x08002158   0x00000002   Code   RO         5265    i.OSTCBInitHook     os_cpu_c.o
    0x0800215a   0x00000002   PAD
    0x0800215c   0x000000ac   Code   RO         5910    i.OSTaskCreate      os_task.o
    0x08002208   0x000000c0   Code   RO         5911    i.OSTaskCreateExt   os_task.o
    0x080022c8   0x00000002   Code   RO         5266    i.OSTaskCreateHook  os_cpu_c.o
    0x080022ca   0x00000002   Code   RO         5268    i.OSTaskIdleHook    os_cpu_c.o
    0x080022cc   0x000000ac   Code   RO         5915    i.OSTaskNameSet     os_task.o
    0x08002378   0x00000002   Code   RO         5269    i.OSTaskStatHook    os_cpu_c.o
    0x0800237a   0x00000002   PAD
    0x0800237c   0x000000a0   Code   RO         5918    i.OSTaskStkChk      os_task.o
    0x0800241c   0x0000009a   Code   RO         5270    i.OSTaskStkInit     os_cpu_c.o
    0x080024b6   0x00000002   Code   RO         5271    i.OSTaskSwHook      os_cpu_c.o
    0x080024b8   0x00000070   Code   RO         5987    i.OSTimeDly         os_time.o
    0x08002528   0x000000f4   Code   RO         5362    i.OSTimeTick        os_core.o
    0x0800261c   0x00000024   Code   RO         5272    i.OSTimeTickHook    os_cpu_c.o
    0x08002640   0x00000014   Code   RO         6027    i.OSTmrSignal       os_tmr.o
    0x08002654   0x000000dc   Code   RO         6033    i.OSTmr_Init        os_tmr.o
    0x08002730   0x0000004c   Code   RO         6034    i.OSTmr_InitTask    os_tmr.o
    0x0800277c   0x0000006c   Code   RO         6035    i.OSTmr_Link        os_tmr.o
    0x080027e8   0x00000014   Code   RO         6036    i.OSTmr_Lock        os_tmr.o
    0x080027fc   0x0000007c   Code   RO         6037    i.OSTmr_Task        os_tmr.o
    0x08002878   0x00000044   Code   RO         6038    i.OSTmr_Unlink      os_tmr.o
    0x080028bc   0x00000010   Code   RO         6039    i.OSTmr_Unlock      os_tmr.o
    0x080028cc   0x00000050   Code   RO         5365    i.OS_EventTOAbort   os_core.o
    0x0800291c   0x000000dc   Code   RO         5366    i.OS_EventTaskRdy   os_core.o
    0x080029f8   0x0000007c   Code   RO         5367    i.OS_EventTaskWait  os_core.o
    0x08002a74   0x0000001c   Code   RO         5368    i.OS_EventWaitListInit  os_core.o
    0x08002a90   0x0000004c   Code   RO         5562    i.OS_FlagInit       os_flag.o
    0x08002adc   0x00000050   Code   RO         5369    i.OS_InitEventList  os_core.o
    0x08002b2c   0x00000054   Code   RO         5370    i.OS_InitMisc       os_core.o
    0x08002b80   0x00000048   Code   RO         5371    i.OS_InitRdyList    os_core.o
    0x08002bc8   0x00000068   Code   RO         5372    i.OS_InitTCBList    os_core.o
    0x08002c30   0x0000004c   Code   RO         5373    i.OS_InitTaskIdle   os_core.o
    0x08002c7c   0x0000004c   Code   RO         5374    i.OS_InitTaskStat   os_core.o
    0x08002cc8   0x00000012   Code   RO         5375    i.OS_MemClr         os_core.o
    0x08002cda   0x00000002   PAD
    0x08002cdc   0x0000004c   Code   RO         5694    i.OS_MemInit        os_mem.o
    0x08002d28   0x00000038   Code   RO         5793    i.OS_QInit          os_q.o
    0x08002d60   0x000000c0   Code   RO         5377    i.OS_Sched          os_core.o
    0x08002e20   0x0000002c   Code   RO         5378    i.OS_SchedNew       os_core.o
    0x08002e4c   0x0000001c   Code   RO         5379    i.OS_StrCopy        os_core.o
    0x08002e68   0x00000014   Code   RO         5380    i.OS_StrLen         os_core.o
    0x08002e7c   0x0000012c   Code   RO         5381    i.OS_TCBInit        os_core.o
    0x08002fa8   0x00000024   Code   RO         5382    i.OS_TaskIdle       os_core.o
    0x08002fcc   0x00000090   Code   RO         5383    i.OS_TaskStat       os_core.o
    0x0800305c   0x0000003c   Code   RO         5384    i.OS_TaskStatStkChk  os_core.o
    0x08003098   0x0000001a   Code   RO         5920    i.OS_TaskStkClr     os_task.o
    0x080030b2   0x000000f8   Code   RO         4693    i.PendTransactionToQue  wers.o
    0x080031aa   0x00000002   PAD
    0x080031ac   0x00000020   Code   RO         2055    i.RCC_APB1PeriphClockCmd  stm32f10x_rcc.o
    0x080031cc   0x00000020   Code   RO         2057    i.RCC_APB2PeriphClockCmd  stm32f10x_rcc.o
    0x080031ec   0x000000d4   Code   RO         2065    i.RCC_GetClocksFreq  stm32f10x_rcc.o
    0x080032c0   0x00000060   Code   RO         4694    i.RFMacSemPend      wers.o
    0x08003320   0x0000008e   Code   RO         4695    i.RF_SendRTS        wers.o
    0x080033ae   0x00000002   PAD
    0x080033b0   0x0000001c   Code   RO         3861    i.RegMrfiIsr        bsp.o
    0x080033cc   0x00000030   Code   RO         3614    i.ResetReceive      mrfi.o
    0x080033fc   0x0000004c   Code   RO         4071    i.SMPL_Init         nwk_api.o
    0x08003448   0x0000009a   Code   RO         4072    i.SMPL_Ioctl        nwk_api.o
    0x080034e2   0x0000000c   Code   RO         4073    i.SMPL_Link         nwk_api.o
    0x080034ee   0x0000000e   Code   RO         4074    i.SMPL_LinkClose    nwk_api.o
    0x080034fc   0x00000016   Code   RO         4075    i.SMPL_LinkListen   nwk_api.o
    0x08003512   0x0000000c   Code   RO         4076    i.SMPL_Ping         nwk_api.o
    0x0800351e   0x00000048   Code   RO         4077    i.SMPL_Receive      nwk_api.o
    0x08003566   0x00000002   PAD
    0x08003568   0x00000018   Code   RO         4079    i.SMPL_Reset        nwk_api.o
    0x08003580   0x00000070   Code   RO         4080    i.SMPL_Send         nwk_api.o
    0x080035f0   0x0000006c   Code   RO         4697    i.SMPL_SendEx       wers.o
    0x0800365c   0x00000098   Code   RO         3461    i.SPI_CC1100_Init   spi_cc1100.o
    0x080036f4   0x00000018   Code   RO         2540    i.SPI_Cmd           stm32f10x_spi.o
    0x0800370c   0x0000003c   Code   RO         2553    i.SPI_Init          stm32f10x_spi.o
    0x08003748   0x0000002c   Code   RO         3463    i.SPI_RxTxByte      spi_cc1100.o
    0x08003774   0x000000a4   Code   RO          519    i.STM_EVAL_COMInit  stm32_eval.o
    0x08003818   0x00000048   Code   RO          520    i.STM_EVAL_LEDInit  stm32_eval.o
    0x08003860   0x00000028   Code   RO          521    i.STM_EVAL_LEDOff   stm32_eval.o
    0x08003888   0x00000018   Code   RO          522    i.STM_EVAL_LEDOn    stm32_eval.o
    0x080038a0   0x00000048   Code   RO          523    i.STM_EVAL_LEDSet   stm32_eval.o
    0x080038e8   0x00000024   Code   RO          524    i.STM_EVAL_LEDToggle  stm32_eval.o
    0x0800390c   0x00000002   Code   RO          259    i.SVC_Handler       stm32f10x_it.o
    0x0800390e   0x00000044   Code   RO         4698    i.SearchTransactionGUID  wers.o
    0x08003952   0x00000002   PAD
    0x08003954   0x00000034   Code   RO         4699    i.SendDataToPC      wers.o
    0x08003988   0x00000008   Code   RO          577    i.SetSysClock       system_stm32f10x.o
    0x08003990   0x000000d0   Code   RO          578    i.SetSysClockTo72   system_stm32f10x.o
    0x08003a60   0x00000014   Code   RO          333    i.StartTimer        dtimer.o
    0x08003a74   0x00000028   Code   RO          260    i.SysTick_Handler   stm32f10x_it.o
    0x08003a9c   0x000000ac   Code   RO          579    i.SystemInit        system_stm32f10x.o
    0x08003b48   0x000000cc   Code   RO          335    i.TIM3_IRQHandler   dtimer.o
    0x08003c14   0x00000018   Code   RO         2698    i.TIM_Cmd           stm32f10x_tim.o
    0x08003c2c   0x00000018   Code   RO         2723    i.TIM_ITConfig      stm32f10x_tim.o
    0x08003c44   0x00000078   Code   RO         2727    i.TIM_OC1Init       stm32f10x_tim.o
    0x08003cbc   0x0000003c   Code   RO         2769    i.TIM_TimeBaseInit  stm32f10x_tim.o
    0x08003cf8   0x0000003c   Code   RO         3863    i.USART1_IRQHandler  bsp.o
    0x08003d34   0x00000018   Code   RO         3234    i.USART_Cmd         stm32f10x_usart.o
    0x08003d4c   0x0000001a   Code   RO         3237    i.USART_GetFlagStatus  stm32f10x_usart.o
    0x08003d66   0x0000004a   Code   RO         3240    i.USART_ITConfig    stm32f10x_usart.o
    0x08003db0   0x000000a0   Code   RO         3241    i.USART_Init        stm32f10x_usart.o
    0x08003e50   0x00000008   Code   RO         3249    i.USART_SendData    stm32f10x_usart.o
    0x08003e58   0x00000004   Code   RO          261    i.UsageFault_Handler  stm32f10x_it.o
    0x08003e5c   0x00000058   Code   RO         4702    i.WERS485RecevieTask  wers.o
    0x08003eb4   0x0000005a   Code   RO         4703    i.WERS485Send       wers.o
    0x08003f0e   0x00000002   PAD
    0x08003f10   0x000001d8   Code   RO         4707    i.WERSAPCmd         wers.o
    0x080040e8   0x00000470   Code   RO         4710    i.WERSExTask        wers.o
    0x08004558   0x0000004c   Code   RO         4711    i.WERSExWorking     wers.o
    0x080045a4   0x00000008   Code   RO         4713    i.WERSGenerate_RF_GUID  wers.o
    0x080045ac   0x00000012   Code   RO         4716    i.WERSGetDeviceAddress  wers.o
    0x080045be   0x00000002   PAD
    0x080045c0   0x0000001c   Code   RO         4719    i.WERSMsTimeGet     wers.o
    0x080045dc   0x00000020   Code   RO         4720    i.WERSMsTimeSet     wers.o
    0x080045fc   0x000000d6   Code   RO         4721    i.WERSPCDataProcess  wers.o
    0x080046d2   0x00000002   PAD
    0x080046d4   0x0000016c   Code   RO         4722    i.WERSPCPridge      wers.o
    0x08004840   0x00000090   Code   RO         4723    i.WERSRFBridgeTask  wers.o
    0x080048d0   0x000000ac   Code   RO         4724    i.WERSRFReceiverTask  wers.o
    0x0800497c   0x00000050   Code   RO         4725    i.WERSReadDevice    wers.o
    0x080049cc   0x00000044   Code   RO         4726    i.WERSResponseCTS   wers.o
    0x08004a10   0x00000070   Code   RO         4728    i.WERSSendDataAck   wers.o
    0x08004a80   0x00000012   Code   RO         4731    i.WERSSetDeviceAddress  wers.o
    0x08004a92   0x00000002   PAD
    0x08004a94   0x00000028   Code   RO         4733    i.WERSTimerISR      wers.o
    0x08004abc   0x00000020   Code   RO         4734    i.WERSWriteDevice   wers.o
    0x08004adc   0x00000130   Code   RO         4744    i.WERS_RTS_CTS_Notify  wers.o
    0x08004c0c   0x0000003a   Code   RO         4745    i.WERS_RandomDelay  wers.o
    0x08004c46   0x00000002   PAD
    0x08004c48   0x0000018c   Code   RO         4754    i.WERS_Transmit     wers.o
    0x08004dd4   0x0000001c   Code   RO         4755    i.WERS_init         wers.o
    0x08004df0   0x00000050   Code   RO         4756    i.WERS_processReSendRequest  wers.o
    0x08004e40   0x00000050   Code   RO         5189    i.WatchDogInit      rf_wd.o
    0x08004e90   0x00000020   Code   RO         6345    i.__0printf$8       mc_w.l(printf8.o)
    0x08004eb0   0x0000000e   Code   RO         6434    i.__scatterload_copy  mc_w.l(handlers.o)
    0x08004ebe   0x00000002   Code   RO         6435    i.__scatterload_null  mc_w.l(handlers.o)
    0x08004ec0   0x0000000e   Code   RO         6436    i.__scatterload_zeroinit  mc_w.l(handlers.o)
    0x08004ece   0x00000002   PAD
    0x08004ed0   0x00000420   Code   RO         6352    i._printf_core      mc_w.l(printf8.o)
    0x080052f0   0x00000026   Code   RO         6353    i._printf_post_padding  mc_w.l(printf8.o)
    0x08005316   0x00000030   Code   RO         6354    i._printf_pre_padding  mc_w.l(printf8.o)
    0x08005346   0x00000002   PAD
    0x08005348   0x00000044   Code   RO         4554    i.broadcast_nwk_reset  nwk_mgmt.o
    0x0800538c   0x00000044   Code   RO         4555    i.broadcast_nwk_search_server  nwk_mgmt.o
    0x080053d0   0x00000044   Code   RO         4757    i.cal_crc           wers.o
    0x08005414   0x0000000e   Code   RO         1384    i.delay             stm32f10x_flash.o
    0x08005422   0x00000002   PAD
    0x08005424   0x00000158   Code   RO         4148    i.dispatchFrame     nwk_frame.o
    0x0800557c   0x00000034   Code   RO          433    i.fmemcmp           flash.o
    0x080055b0   0x00000040   Code   RO          477    i.fputc             uart.o
    0x080055f0   0x00000010   Code   RO         4424    i.generateLinkToken  nwk_join.o
    0x08005600   0x00000054   Code   RO          478    i.init_485_uart     uart.o
    0x08005654   0x00000024   Code   RO          479    i.init_dbguart      uart.o
    0x08005678   0x00000040   Code   RO         3903    i.initializeConnection  nwk.o
    0x080056b8   0x00000074   Code   RO         4149    i.isDupSandFFrame   nwk_frame.o
    0x0800572c   0x00000028   Code   RO          336    i.mDelay            dtimer.o
    0x08005754   0x00000038   Code   RO            6    i.main              main.o
    0x0800578c   0x00000030   Code   RO         3904    i.map_lid2idx       nwk.o
    0x080057bc   0x0000004c   Code   RO         3615    i.mrfiSpiCmdStrobe  mrfi.o
    0x08005808   0x00000014   Code   RO         3616    i.mrfiSpiInit       mrfi.o
    0x0800581c   0x00000010   Code   RO         3617    i.mrfiSpiReadReg    mrfi.o
    0x0800582c   0x00000012   Code   RO         3618    i.mrfiSpiReadRxFifo  mrfi.o
    0x0800583e   0x00000010   Code   RO         3619    i.mrfiSpiWriteReg   mrfi.o
    0x0800584e   0x00000012   Code   RO         3620    i.mrfiSpiWriteTxFifo  mrfi.o
    0x08005860   0x0000000a   Code   RO         3621    i.mrfi_delay        mrfi.o
    0x0800586a   0x00000002   PAD
    0x0800586c   0x0000009c   Code   RO         4556    i.nwk_CTS_process   nwk_mgmt.o
    0x08005908   0x0000002c   Code   RO         4557    i.nwk_DS_process    nwk_mgmt.o
    0x08005934   0x00000044   Code   RO         4558    i.nwk_Data_Ack_process  nwk_mgmt.o
    0x08005978   0x00000020   Code   RO         4326    i.nwk_QInit         nwk_qmgmt.o
    0x08005998   0x0000004c   Code   RO         4327    i.nwk_QadjustOrder  nwk_qmgmt.o
    0x080059e4   0x00000144   Code   RO         4328    i.nwk_QfindOldest   nwk_qmgmt.o
    0x08005b28   0x000000a0   Code   RO         4329    i.nwk_QfindSlot     nwk_qmgmt.o
    0x08005bc8   0x00000060   Code   RO         4559    i.nwk_RTS_process   nwk_mgmt.o
    0x08005c28   0x0000000c   Code   RO         3905    i.nwk_ResetSet      nwk.o
    0x08005c34   0x000000b0   Code   RO         4150    i.nwk_SendEmptyPollRspFrame  nwk_frame.o
    0x08005ce4   0x000000ec   Code   RO         3906    i.nwk_allocateLocalRxPort  nwk.o
    0x08005dd0   0x00000094   Code   RO         4151    i.nwk_buildFrame    nwk_frame.o
    0x08005e64   0x00000022   Code   RO         3907    i.nwk_checkConnInfo  nwk.o
    0x08005e86   0x00000030   Code   RO         4382    i.nwk_connectionControl  nwk_ioctl.o
    0x08005eb6   0x00000026   Code   RO         4383    i.nwk_deviceAddress  nwk_ioctl.o
    0x08005edc   0x00000038   Code   RO         3909    i.nwk_findAlreadyJoined  nwk.o
    0x08005f14   0x0000003c   Code   RO         4152    i.nwk_frameInit     nwk_frame.o
    0x08005f50   0x00000006   Code   RO         3910    i.nwk_freeConnection  nwk.o
    0x08005f56   0x00000002   PAD
    0x08005f58   0x00000054   Code   RO         3911    i.nwk_freeConnectionEx  nwk.o
    0x08005fac   0x00000002   Code   RO         4364    i.nwk_freqInit      nwk_freq.o
    0x08005fae   0x00000002   PAD
    0x08005fb0   0x00000008   Code   RO         4259    i.nwk_getBCastAddress  nwk_globals.o
    0x08005fb8   0x00000040   Code   RO         3912    i.nwk_getConnInfo   nwk.o
    0x08005ff8   0x00000050   Code   RO         4481    i.nwk_getLocalLinkID  nwk_link.o
    0x08006048   0x0000001c   Code   RO         4260    i.nwk_getMyAddress  nwk_globals.o
    0x08006064   0x0000000c   Code   RO         4153    i.nwk_getMyRxType   nwk_frame.o
    0x08006070   0x00000050   Code   RO         3914    i.nwk_getNextConnection  nwk.o
    0x080060c0   0x00000018   Code   RO         4330    i.nwk_getQ          nwk_qmgmt.o
    0x080060d8   0x00000062   Code   RO         4154    i.nwk_getSandFFrame  nwk_frame.o
    0x0800613a   0x00000002   PAD
    0x0800613c   0x00000008   Code   RO         4261    i.nwk_getServerAddress  nwk_globals.o
    0x08006144   0x00000024   Code   RO         4262    i.nwk_globalsInit   nwk_globals.o
    0x08006168   0x00000058   Code   RO         3915    i.nwk_isConnectionValid  nwk.o
    0x080061c0   0x00000044   Code   RO         3917    i.nwk_isLinkDuplicate  nwk.o
    0x08006204   0x00000034   Code   RO         3918    i.nwk_isLinked      nwk.o
    0x08006238   0x00000030   Code   RO         4425    i.nwk_isSandFClient  nwk_join.o
    0x08006268   0x00000048   Code   RO         3919    i.nwk_isValidReply  nwk.o
    0x080062b0   0x00000024   Code   RO         4426    i.nwk_join          nwk_join.o
    0x080062d4   0x00000018   Code   RO         4384    i.nwk_joinContext   nwk_ioctl.o
    0x080062ec   0x00000044   Code   RO         4427    i.nwk_joinInit      nwk_join.o
    0x08006330   0x00000154   Code   RO         4482    i.nwk_link          nwk_link.o
    0x08006484   0x0000000c   Code   RO         4483    i.nwk_linkClose     nwk_link.o
    0x08006490   0x00000040   Code   RO         4484    i.nwk_linkInit      nwk_link.o
    0x080064d0   0x00000010   Code   RO         4560    i.nwk_mgmtInit      nwk_mgmt.o
    0x080064e0   0x00000090   Code   RO         3920    i.nwk_nwkInit       nwk.o
    0x08006570   0x000000d0   Code   RO         4632    i.nwk_ping          nwk_ping.o
    0x08006640   0x00000010   Code   RO         4633    i.nwk_pingInit      nwk_ping.o
    0x08006650   0x00000006   Code   RO         4365    i.nwk_processFreq   nwk_freq.o
    0x08006656   0x00000002   PAD
    0x08006658   0x00000040   Code   RO         4428    i.nwk_processJoin   nwk_join.o
    0x08006698   0x00000040   Code   RO         4485    i.nwk_processLink   nwk_link.o
    0x080066d8   0x000000a8   Code   RO         4561    i.nwk_processMgmt   nwk_mgmt.o
    0x08006780   0x00000054   Code   RO         4634    i.nwk_processPing   nwk_ping.o
    0x080067d4   0x00000006   Code   RO         4663    i.nwk_processSecurity  nwk_security.o
    0x080067da   0x0000006e   Code   RO         4385    i.nwk_radioControl  nwk_ioctl.o
    0x08006848   0x00000024   Code   RO         4386    i.nwk_rawReceive    nwk_ioctl.o
    0x0800686c   0x00000048   Code   RO         4387    i.nwk_rawSend       nwk_ioctl.o
    0x080068b4   0x00000090   Code   RO         4156    i.nwk_retrieveFrame  nwk_frame.o
    0x08006944   0x00000054   Code   RO         3921    i.nwk_saveJoinedDevice  nwk.o
    0x08006998   0x00000002   Code   RO         4664    i.nwk_securityInit  nwk_security.o
    0x0800699a   0x00000002   PAD
    0x0800699c   0x00000034   Code   RO         4158    i.nwk_sendFrame     nwk_frame.o
    0x080069d0   0x0000000c   Code   RO         4263    i.nwk_setAPAddress  nwk_globals.o
    0x080069dc   0x00000014   Code   RO         4429    i.nwk_setJoinContext  nwk_join.o
    0x080069f0   0x0000000c   Code   RO         4486    i.nwk_setLinkToken  nwk_link.o
    0x080069fc   0x00000014   Code   RO         4487    i.nwk_setListenContext  nwk_link.o
    0x08006a10   0x0000001c   Code   RO         4264    i.nwk_setMyAddress  nwk_globals.o
    0x08006a2c   0x0000013c   Code   RO         4759    i.processMessage    wers.o
    0x08006b68   0x0000004c   Code   RO         4562    i.resend_request_process  nwk_mgmt.o
    0x08006bb4   0x000000a8   Code   RO         5219    i.rf_mem_free       rf_mem.o
    0x08006c5c   0x0000004c   Code   RO         5220    i.rf_mem_init       rf_mem.o
    0x08006ca8   0x0000019c   Code   RO         5221    i.rf_mem_malloc     rf_mem.o
    0x08006e44   0x00000118   Code   RO         5224    i.rf_plug_holes     rf_mem.o
    0x08006f5c   0x00000028   Code   RO         4760    i.sCB               wers.o
    0x08006f84   0x00000038   Code   RO         4761    i.sReset            wers.o
    0x08006fbc   0x0000003c   Code   RO         4563    i.send_poll_reply   nwk_mgmt.o
    0x08006ff8   0x00000080   Code   RO         4564    i.send_search_server_reply  nwk_mgmt.o
    0x08007078   0x0000014c   Code   RO         4430    i.smpl_send_join_reply  nwk_join.o
    0x080071c4   0x00000230   Code   RO         4488    i.smpl_send_link_reply  nwk_link.o
    0x080073f4   0x00000094   Code   RO         4565    i.smpl_send_mgmt_reply  nwk_mgmt.o
    0x08007488   0x00000034   Code   RO         4635    i.smpl_send_ping_reply  nwk_ping.o
    0x080074bc   0x00000080   Code   RO         3622    i.spiBurstFifoAccess  mrfi.o
    0x0800753c   0x00000064   Code   RO         3623    i.spiRegAccess      mrfi.o
    0x080075a0   0x0000000c   Code   RO          338    i.tmrMsTimeGet      dtimer.o
    0x080075ac   0x00000018   Code   RO          339    i.uDelay            dtimer.o
    0x080075c4   0x00000060   Code   RO         5190    i.watchDogTask      rf_wd.o
    0x08007624   0x000000ac   Data   RO          527    .constdata          stm32_eval.o
    0x080076d0   0x000000bf   Data   RO         3625    .constdata          mrfi.o
    0x0800778f   0x00000001   PAD
    0x08007790   0x00000018   Data   RO         4163    .constdata          nwk_frame.o
    0x080077a8   0x00000017   Data   RO         4266    .constdata          nwk_globals.o
    0x080077bf   0x00000001   PAD
    0x080077c0   0x00000171   Data   RO         4763    .constdata          wers.o
    0x08007931   0x00000100   Data   RO         5386    .constdata          os_core.o
    0x08007a31   0x00000064   Data   RO         4164    .conststring        nwk_frame.o
    0x08007a95   0x00000003   PAD
    0x08007a98   0x00000020   Data   RO         6432    Region$$Table       anon$$obj.o


    Execution Region RW_IRAM1 (Base: 0x20000000, Size: 0x00009438, Max: 0x00010000, ABSOLUTE, COMPRESSED[0x0000007c])

    Base Addr    Size         Type   Attr      Idx    E Section Name        Object

    0x20000000   0x00000004   Data   RW          341    .data               dtimer.o
    0x20000004   0x00000048   Data   RW          528    .data               stm32_eval.o
    0x2000004c   0x00000014   Data   RW         2085    .data               stm32f10x_rcc.o
    0x20000060   0x0000001f   Data   RW         3626    .data               mrfi.o
    0x2000007f   0x00000001   PAD
    0x20000080   0x00000004   Data   RW         3864    .data               bsp.o
    0x20000084   0x00000698   Data   RW         3922    .data               nwk.o
    0x2000071c   0x00000001   Data   RW         4081    .data               nwk_api.o
    0x2000071d   0x00000003   PAD
    0x20000720   0x00000028   Data   RW         4165    .data               nwk_frame.o
    0x20000748   0x0000000e   Data   RW         4267    .data               nwk_globals.o
    0x20000756   0x00000002   PAD
    0x20000758   0x00000011   Data   RW         4432    .data               nwk_join.o
    0x20000769   0x00000003   PAD
    0x2000076c   0x0000000c   Data   RW         4490    .data               nwk_link.o
    0x20000778   0x00000001   Data   RW         4566    .data               nwk_mgmt.o
    0x20000779   0x00000001   Data   RW         4636    .data               nwk_ping.o
    0x2000077a   0x00000002   PAD
    0x2000077c   0x000000ac   Data   RW         4764    .data               wers.o
    0x20000828   0x00000004   Data   RW         5191    .data               rf_wd.o
    0x2000082c   0x00000008   Data   RW         5226    .data               rf_mem.o
    0x20000834   0x00000002   Data   RW         5273    .data               os_cpu_c.o
    0x20000836   0x00000002   PAD
    0x20000838   0x0000005c   Data   RW         5387    .data               os_core.o
    0x20000894   0x00000004   Data   RW         6406    .data               mc_w.l(stdout.o)
    0x20000898   0x000001a0   Zero   RW            7    .bss                main.o
    0x20000a38   0x00000040   Zero   RW          340    .bss                dtimer.o
    0x20000a78   0x00000800   Zero   RW          434    .bss                flash.o
    0x20001278   0x00000010   Zero   RW          480    .bss                uart.o
    0x20001288   0x00000040   Zero   RW         3624    .bss                mrfi.o
    0x200012c8   0x00000184   Zero   RW         4162    .bss                nwk_frame.o
    0x2000144c   0x00002a80   Zero   RW         4331    .bss                nwk_qmgmt.o
    0x20003ecc   0x0000000c   Zero   RW         4431    .bss                nwk_join.o
    0x20003ed8   0x00000080   Zero   RW         4489    .bss                nwk_link.o
    0x20003f58   0x00002a28   Zero   RW         4762    .bss                wers.o
    0x20006980   0x0000100c   Zero   RW         5225    .bss                rf_mem.o
    0x2000798c   0x000019a8   Zero   RW         5385    .bss                os_core.o
    0x20009334   0x00000004   PAD
    0x20009338   0x00000100   Zero   RW          608    STACK               startup_stm32f10x_hd.o


==============================================================================

Image component sizes


      Code (inc. data)   RO Data    RW Data    ZI Data      Debug   Object Name

       388         50          0          4          0       7548   bsp.o
       624         66          0          4         64      29842   dtimer.o
      1048         42          0          0       2048      10997   flash.o
       352         92          0          0        416     240855   main.o
       116         14          0          0          0        864   misc.o
      2986        556        191         31         64     232974   mrfi.o
      1192         92          0       1688          0      16072   nwk.o
       498         20          0          1          0       5996   nwk_api.o
      1226        154        124         40        388       7602   nwk_frame.o
         8          0          0          0          0       1257   nwk_freq.o
       120         48         23         14          0       3251   nwk_globals.o
       328          0          0          0          0       4156   nwk_ioctl.o
       584        112          0         17         12       4621   nwk_join.o
      1152        140          0         12        128       9090   nwk_link.o
      1096        160          0          1          0       7902   nwk_mgmt.o
       360         32          0          1          0       3032   nwk_ping.o
       616         36          0          0      10880       4680   nwk_qmgmt.o
         8          0          0          0          0       1189   nwk_security.o
      2598        464        256         92       6568      23832   os_core.o
       176         40          0          0          0        280   os_cpu_a.o
       214         10          0          2          0      15134   os_cpu_c.o
        76          8          0          0          0        518   os_flag.o
        76          8          0          0          0        489   os_mem.o
       754         34          0          0          0       3951   os_q.o
       430         24          0          0          0       2310   os_sem.o
       722         48          0          0          0       4452   os_task.o
       112         16          0          0          0        572   os_time.o
       652        120          0          0          0       4267   os_tmr.o
       936        356          0          8       4108       3324   rf_mem.o
       176         26          0          4          0        995   rf_wd.o
       196         18          0          0          0       2609   spi_cc1100.o
        48         12        304          0        256        796   startup_stm32f10x_hd.o
       408         76        172         72          0       4125   stm32_eval.o
       200         18          0          0          0       1804   stm32f10x_exti.o
       112          6          0          0          0       2659   stm32f10x_flash.o
       338          4          0          0          0       2350   stm32f10x_gpio.o
       164         20          0          0          0      10472   stm32f10x_it.o
        68         30          0          0          0       2110   stm32f10x_iwdg.o
       276         32          0         20          0       4078   stm32f10x_rcc.o
        84          0          0          0          0       8881   stm32f10x_spi.o
       228         20          0          0          0       5018   stm32f10x_tim.o
       292          4          0          0          0       4313   stm32f10x_usart.o
       388         34          0          0          0       6561   system_stm32f10x.o
       184         18          0          0         16       1974   uart.o
      5656        572        369        172      10792      38947   wers.o

    ----------------------------------------------------------------------
     28316       3632       1476       2196      35744     748749   Object Totals
         0          0         32          0          0          0   (incl. Generated)
        50          0          5         13          4          0   (incl. Padding)

    ----------------------------------------------------------------------

      Code (inc. data)   RO Data    RW Data    ZI Data      Debug   Library Member Name

        92          0          0          0          0          0   __dczerorl2.o
         0          0          0          0          0          0   entry.o
         8          4          0          0          0          0   entry2.o
         4          0          0          0          0          0   entry5.o
         0          0          0          0          0          0   entry7b.o
         8          4          0          0          0          0   entry8.o
        30          0          0          0          0          0   handlers.o
        36          8          0          0          0         68   init.o
        30          0          0          0          0         68   llshl.o
        32          0          0          0          0         68   llushr.o
        26          0          0          0          0         80   memcmp.o
        40          0          0          0          0         76   memcpy.o
        38          0          0          0          0        108   memseta.o
      1174         56          0          0          0        352   printf8.o
         0          0          0          4          0          0   stdout.o
        98          0          0          0          0         92   uldiv.o

    ----------------------------------------------------------------------
      1624         72          0          4          0        912   Library Totals
         8          0          0          0          0          0   (incl. Padding)

    ----------------------------------------------------------------------

      Code (inc. data)   RO Data    RW Data    ZI Data      Debug   Library Name

      1616         72          0          4          0        912   mc_w.l

    ----------------------------------------------------------------------
      1624         72          0          4          0        912   Library Totals

    ----------------------------------------------------------------------

==============================================================================


      Code (inc. data)   RO Data    RW Data    ZI Data      Debug   

     29940       3704       1476       2200      35744     734009   Grand Totals
     29940       3704       1476        124      35744     734009   ELF Image Totals (compressed)
     29940       3704       1476        124          0          0   ROM Totals

==============================================================================

    Total RO  Size (Code + RO Data)                31416 (  30.68kB)
    Total RW  Size (RW Data + ZI Data)             37944 (  37.05kB)
    Total ROM Size (Code + RO Data + RW Data)      31540 (  30.80kB)

==============================================================================

